Certificate:
    Data:
        Version: 3 (0x2)
        Serial Number: 211549759084 (0x314159266c)
    Signature Algorithm: sha256WithRSAEncryption
        Issuer: CN=SRK1_sha256_4096_65537_v3_ca
        Validity
            Not Before: Jul 13 21:19:18 2015 GMT
            Not After : Jul  9 21:19:18 2030 GMT
        Subject: CN=CSF1_1_sha256_4096_65537_v3_usr
        Subject Public Key Info:
            Public Key Algorithm: rsaEncryption
                Public-Key: (4096 bit)
                Modulus:
                    00:95:50:26:00:b5:e0:7e:71:56:e4:c4:bd:bb:1e:
                    17:2c:01:52:c4:ea:75:ca:ae:54:2e:11:1a:bd:a9:
                    41:dc:7d:12:6e:10:a2:65:87:a5:72:7f:08:8a:bb:
                    38:ae:37:e0:13:e5:db:75:95:8a:b3:03:d2:b7:53:
                    28:31:ec:55:0d:47:8e:9b:3d:5d:59:60:b0:3f:27:
                    cb:8f:84:02:b4:0e:8b:57:48:f3:20:b0:8b:bd:c3:
                    12:88:ed:2b:27:21:f7:b6:24:f3:eb:37:14:ee:5e:
                    c1:8b:37:d7:bf:3e:73:61:e8:42:53:13:0d:b5:6c:
                    84:4d:ae:47:04:a3:ff:59:26:9f:c5:d0:9f:49:75:
                    67:7f:82:e4:4c:84:8a:8b:6b:86:db:83:c0:e6:27:
                    f5:b5:0c:82:c6:64:89:a5:70:d7:22:da:d2:29:1f:
                    91:5f:88:37:68:6d:90:31:90:8e:e4:de:28:22:47:
                    f1:9b:9e:63:0e:aa:8d:a1:de:c7:57:52:83:f6:4b:
                    26:a6:92:66:83:1a:c2:76:4f:0e:f5:20:97:de:20:
                    d0:e3:64:94:7f:bf:de:14:bf:a1:23:3d:bf:87:06:
                    53:a0:fa:ad:ac:78:c2:50:8f:47:b1:d3:51:58:fd:
                    b9:ab:8c:51:12:a2:88:1a:1c:82:9c:2a:58:83:5a:
                    55:ce:6f:8f:6a:9c:0f:f5:a4:6e:8e:e1:3d:f4:db:
                    69:e1:e2:a0:4a:6b:ff:c3:17:cf:13:3b:a0:7f:7c:
                    66:4e:b8:62:89:ac:e1:85:8a:c2:12:91:da:ce:0f:
                    75:4e:1a:39:e8:05:c6:79:e3:54:c9:cd:ba:a8:27:
                    57:ba:44:de:23:bc:52:08:80:49:ff:fe:27:60:eb:
                    54:df:b2:26:c4:47:a4:6f:d8:88:f4:77:ef:af:50:
                    be:30:8b:04:d3:91:ff:65:01:18:ec:19:f0:b1:db:
                    5b:10:39:d8:95:64:a2:be:07:fe:db:79:ff:b1:c5:
                    63:51:7b:f0:56:a0:68:51:18:69:42:52:48:ba:f1:
                    3e:74:4d:51:f4:11:1c:9a:b0:98:30:23:74:cd:99:
                    86:e0:a9:d8:fa:b6:c1:a2:9d:fd:88:19:19:82:9c:
                    6a:f9:46:8f:8d:c7:5e:4d:b7:1f:79:58:df:76:a6:
                    58:9c:57:5e:f6:9e:78:db:fb:c2:98:63:86:e1:f9:
                    a7:2c:4c:6e:0b:eb:e1:c1:fa:eb:e9:af:52:4d:f3:
                    78:41:78:62:75:bf:e0:8c:50:f2:29:3f:f1:a1:8c:
                    65:50:2c:9d:6b:0d:09:4c:b3:57:89:47:1b:eb:20:
                    0a:87:c1:a1:df:e4:46:f9:be:76:d8:fc:58:5b:9f:
                    51:a3:df
                Exponent: 65537 (0x10001)
        X509v3 extensions:
            X509v3 Basic Constraints: 
                CA:FALSE
            Netscape Comment: 
                OpenSSL Generated Certificate
            X509v3 Subject Key Identifier: 
                85:D4:22:92:19:89:3C:4F:03:5A:79:76:74:CB:45:5D:1B:11:65:3F
            X509v3 Authority Key Identifier: 
                keyid:7C:C8:40:4B:87:97:21:1A:87:43:15:11:FF:86:9F:73:31:A8:92:3D

    Signature Algorithm: sha256WithRSAEncryption
         1b:79:06:04:b7:9e:3a:6a:13:cd:d4:3f:fe:e7:b2:3c:7e:bf:
         a8:fb:31:ba:de:bd:79:9d:a4:e2:66:ad:98:5e:62:95:67:99:
         be:ee:03:93:e1:a6:e0:35:c3:ed:a2:a1:1d:e6:35:fd:ce:9c:
         58:ba:a5:b9:7e:7c:85:20:cf:6e:88:ae:d4:90:a2:12:48:f5:
         fd:2c:2d:88:8b:37:38:4c:20:67:ba:c2:4d:00:41:73:8a:e7:
         87:8a:3c:df:56:1a:d9:0f:ec:b4:a2:1e:39:87:fc:19:1f:7a:
         8d:16:09:f1:5e:a0:a1:bf:d2:5f:5f:e5:60:27:0e:4a:04:4a:
         d2:59:a4:b5:32:f8:56:1c:35:c9:e2:70:00:31:b2:e4:a5:e6:
         08:02:1f:51:d7:4b:5d:07:16:d3:89:d2:9e:55:d1:93:ef:eb:
         ae:2c:ff:02:17:89:9d:37:8f:48:bd:d1:7c:d1:fc:73:3c:11:
         ac:df:83:3d:c1:4d:ca:5c:27:f6:f9:01:4e:cd:21:7c:1b:71:
         20:a8:89:cf:1a:c4:02:c0:9c:54:03:14:79:ba:b2:67:75:88:
         32:35:bf:4f:fd:76:48:4e:07:1e:6c:49:84:3f:b0:41:f0:38:
         6f:17:66:d6:5e:bb:90:d5:37:e4:00:a9:9b:27:73:4a:6d:04:
         7e:85:9f:e3:b1:38:9c:a0:25:ca:59:5d:77:dc:ae:4f:b4:8a:
         32:e8:d2:32:e3:33:d6:82:e5:44:48:f8:9a:e7:96:62:ec:d3:
         b7:5a:a7:a3:b9:a3:d4:61:27:05:e5:74:90:35:23:e8:7b:f9:
         1d:12:2c:ab:75:33:af:98:20:e5:9d:1c:72:68:5d:61:a9:8a:
         46:84:f6:da:7e:7c:ab:b5:e0:14:5e:22:55:c1:0b:51:72:20:
         1e:a7:f1:38:72:fd:4e:70:56:3f:4b:f7:e8:5b:30:b7:fc:bf:
         75:59:89:b8:74:37:8a:91:06:7f:b2:bc:4b:9e:a0:c8:04:81:
         bb:25:cc:eb:9d:d0:3d:ef:b8:0d:31:96:bf:cf:77:e9:ec:6e:
         a9:93:d7:b2:2d:a9:b7:21:34:26:7b:81:ec:42:18:69:bc:a5:
         d0:8c:16:55:11:83:50:f8:63:8d:3f:14:09:92:95:35:be:46:
         27:8b:38:5a:b8:02:d4:df:eb:82:14:58:39:0a:de:5d:c3:61:
         7f:68:6b:cd:4b:25:d8:7a:84:10:14:9e:ee:8d:3c:5a:3b:a8:
         80:03:8c:db:3e:ef:63:67:3c:7e:54:90:a1:9a:9e:d7:a9:2a:
         75:49:a4:db:f5:7f:96:72:da:15:43:01:74:31:dc:6a:d7:03:
         02:3e:5d:f5:cc:bc:2e:36
-----BEGIN CERTIFICATE-----
MIIFSzCCAzOgAwIBAgIFMUFZJmwwDQYJKoZIhvcNAQELBQAwJzElMCMGA1UEAwwc
U1JLMV9zaGEyNTZfNDA5Nl82NTUzN192M19jYTAeFw0xNTA3MTMyMTE5MThaFw0z
MDA3MDkyMTE5MThaMCoxKDAmBgNVBAMMH0NTRjFfMV9zaGEyNTZfNDA5Nl82NTUz
N192M191c3IwggIiMA0GCSqGSIb3DQEBAQUAA4ICDwAwggIKAoICAQCVUCYAteB+
cVbkxL27HhcsAVLE6nXKrlQuERq9qUHcfRJuEKJlh6VyfwiKuziuN+AT5dt1lYqz
A9K3Uygx7FUNR46bPV1ZYLA/J8uPhAK0DotXSPMgsIu9wxKI7SsnIfe2JPPrNxTu
XsGLN9e/PnNh6EJTEw21bIRNrkcEo/9ZJp/F0J9JdWd/guRMhIqLa4bbg8DmJ/W1
DILGZImlcNci2tIpH5FfiDdobZAxkI7k3igiR/GbnmMOqo2h3sdXUoP2SyamkmaD
GsJ2Tw71IJfeINDjZJR/v94Uv6EjPb+HBlOg+q2seMJQj0ex01FY/bmrjFESooga
HIKcKliDWlXOb49qnA/1pG6O4T3022nh4qBKa//DF88TO6B/fGZOuGKJrOGFisIS
kdrOD3VOGjnoBcZ541TJzbqoJ1e6RN4jvFIIgEn//idg61TfsibER6Rv2Ij0d++v
UL4wiwTTkf9lARjsGfCx21sQOdiVZKK+B/7bef+xxWNRe/BWoGhRGGlCUki68T50
TVH0ERyasJgwI3TNmYbgqdj6tsGinf2IGRmCnGr5Ro+Nx15Ntx95WN92plicV172
nnjb+8KYY4bh+acsTG4L6+HB+uvpr1JN83hBeGJ1v+CMUPIpP/GhjGVQLJ1rDQlM
s1eJRxvrIAqHwaHf5Eb5vnbY/Fhbn1Gj3wIDAQABo3sweTAJBgNVHRMEAjAAMCwG
CWCGSAGG+EIBDQQfFh1PcGVuU1NMIEdlbmVyYXRlZCBDZXJ0aWZpY2F0ZTAdBgNV
HQ4EFgQUhdQikhmJPE8DWnl2dMtFXRsRZT8wHwYDVR0jBBgwFoAUfMhAS4eXIRqH
QxUR/4afczGokj0wDQYJKoZIhvcNAQELBQADggIBABt5BgS3njpqE83UP/7nsjx+
v6j7MbrevXmdpOJmrZheYpVnmb7uA5PhpuA1w+2ioR3mNf3OnFi6pbl+fIUgz26I
rtSQohJI9f0sLYiLNzhMIGe6wk0AQXOK54eKPN9WGtkP7LSiHjmH/Bkfeo0WCfFe
oKG/0l9f5WAnDkoEStJZpLUy+FYcNcnicAAxsuSl5ggCH1HXS10HFtOJ0p5V0ZPv
664s/wIXiZ03j0i90XzR/HM8Eazfgz3BTcpcJ/b5AU7NIXwbcSCoic8axALAnFQD
FHm6smd1iDI1v0/9dkhOBx5sSYQ/sEHwOG8XZtZeu5DVN+QAqZsnc0ptBH6Fn+Ox
OJygJcpZXXfcrk+0ijLo0jLjM9aC5URI+JrnlmLs07dap6O5o9RhJwXldJA1I+h7
+R0SLKt1M6+YIOWdHHJoXWGpikaE9tp+fKu14BReIlXBC1FyIB6n8Thy/U5wVj9L
9+hbMLf8v3VZibh0N4qRBn+yvEueoMgEgbslzOud0D3vuA0xlr/Pd+nsbqmT17It
qbchNCZ7gexCGGm8pdCMFlURg1D4Y40/FAmSlTW+RieLOFq4AtTf64IUWDkK3l3D
YX9oa81LJdh6hBAUnu6NPFo7qIADjNs+72NnPH5UkKGantepKnVJpNv1f5Zy2hVD
AXQx3GrXAwI+XfXMvC42
-----END CERTIFICATE-----
