Certificate:
    Data:
        Version: 3 (0x2)
        Serial Number: 211549759087 (0x314159266f)
    Signature Algorithm: sha256WithRSAEncryption
        Issuer: CN=SRK2_sha256_4096_65537_v3_ca
        Validity
            Not Before: Jul 13 21:20:05 2015 GMT
            Not After : Jul  9 21:20:05 2030 GMT
        Subject: CN=CSF2_1_sha256_4096_65537_v3_usr
        Subject Public Key Info:
            Public Key Algorithm: rsaEncryption
                Public-Key: (4096 bit)
                Modulus:
                    00:d3:0d:8f:22:be:5d:3c:12:4e:ec:09:f4:b6:31:
                    45:d8:c9:95:03:45:ab:82:95:38:6c:cf:ba:8d:55:
                    69:d6:31:e7:71:92:81:f3:d6:83:1f:7a:78:c8:da:
                    95:f2:e0:75:7f:28:12:ce:2f:b9:b7:d0:e9:dd:b1:
                    01:a3:8e:06:d7:7c:32:61:8b:45:3e:ec:8d:e9:d5:
                    6b:e3:af:61:12:c3:2a:40:5f:ff:9d:b3:9b:d3:81:
                    d5:99:ce:e6:e7:f8:d9:da:13:3f:d4:d5:ea:7e:e2:
                    53:75:7a:c2:07:da:01:99:22:3e:c2:55:ce:35:ab:
                    20:9e:f9:3a:a1:18:1f:1e:8f:95:79:c2:04:0e:d4:
                    eb:8a:6b:62:9e:8c:22:d7:65:9a:99:5d:2d:23:c2:
                    0f:1e:26:fb:2d:d9:40:f6:ac:09:34:a3:66:f0:89:
                    51:a4:ac:93:5b:62:64:fc:05:8d:18:c7:2f:58:0d:
                    4e:a7:4a:07:c5:d1:a5:ff:93:ea:81:48:6c:ff:01:
                    ee:81:95:58:93:0e:60:4b:ec:f3:04:2e:a1:9d:1b:
                    70:38:6e:a1:8f:14:c1:23:b3:8f:3b:5d:68:9c:a8:
                    dc:9a:fa:f3:6e:57:19:9a:90:a0:7e:05:e3:bd:be:
                    84:41:48:fb:c2:8d:d7:d6:b2:f7:cc:52:ae:2d:fd:
                    30:4a:97:66:e9:9f:61:9d:95:01:fd:72:58:ce:8c:
                    9f:3f:5b:2f:6a:55:54:ae:ad:b0:f3:d3:14:fe:60:
                    b6:e2:05:66:fd:90:49:71:d8:a2:1f:8c:21:70:58:
                    a3:72:1a:b0:94:5e:14:56:dc:42:6b:07:e5:29:49:
                    f1:8d:72:c2:ea:8b:f5:e8:e7:93:f1:08:3f:8a:fd:
                    ae:25:68:cb:ce:09:8e:bb:02:2c:dd:41:7e:10:01:
                    c0:f1:f2:3e:c2:d9:bf:7e:86:83:a1:56:08:b2:a1:
                    10:84:34:0e:75:ad:95:93:44:06:7e:49:b8:fd:a9:
                    3d:f9:45:e9:62:70:b6:4c:8d:50:ba:29:89:bb:ed:
                    ed:93:eb:06:bc:25:42:25:4f:f8:22:41:b5:08:18:
                    ec:ad:c0:1e:5f:db:df:99:a7:13:54:19:e0:1b:01:
                    9b:5f:fd:59:54:10:99:bf:06:bf:e4:28:25:a4:b8:
                    9d:84:e3:ac:27:14:af:06:5a:de:78:f9:cb:88:83:
                    8c:1c:56:ec:a4:65:27:6c:5e:9d:04:fa:5b:68:de:
                    17:78:82:61:82:b8:ae:f2:b2:40:e3:28:fe:21:b8:
                    87:ea:9b:25:0b:4c:10:e9:56:2b:9b:0a:d5:5c:70:
                    c7:b4:0e:d1:16:a0:ff:be:3b:8d:76:5c:bb:6e:f6:
                    47:ee:3d
                Exponent: 65537 (0x10001)
        X509v3 extensions:
            X509v3 Basic Constraints: 
                CA:FALSE
            Netscape Comment: 
                OpenSSL Generated Certificate
            X509v3 Subject Key Identifier: 
                13:79:3D:73:B0:9E:58:7F:77:12:C9:B6:2F:52:1A:6C:68:12:13:6A
            X509v3 Authority Key Identifier: 
                keyid:16:1E:91:F9:A0:81:DF:F8:09:5D:D0:F7:69:D4:AE:B8:07:CB:20:B6

    Signature Algorithm: sha256WithRSAEncryption
         a9:18:31:06:56:cb:c5:d6:3a:e6:bf:cd:a9:b5:81:d3:e1:6f:
         b7:cc:c8:d8:f4:f5:62:cc:d9:17:58:08:6c:01:94:2b:67:93:
         a8:8b:86:11:6c:f8:7b:bc:6f:e1:7a:29:fd:e3:48:d6:35:5b:
         2d:70:c3:a4:80:7a:bf:56:f7:f0:74:5d:30:31:4c:15:e3:aa:
         e7:fd:2f:a2:02:9a:39:ae:0d:94:b3:5b:f3:ad:8d:e3:7a:a2:
         e9:cb:bf:cf:6d:7f:c0:9c:85:19:f6:5e:e1:59:0e:d4:56:be:
         bd:c5:8f:76:9b:97:62:c3:2b:19:80:4b:02:bb:1b:35:67:c0:
         ee:53:b7:47:2d:5a:ec:ef:70:f4:d8:07:d3:bb:4c:e8:41:77:
         d6:e9:03:45:89:2e:07:45:9b:63:5d:ce:b7:a3:8b:7f:29:16:
         7f:5d:cd:4d:0d:ad:e6:16:aa:71:04:2a:18:fe:cb:ad:8f:95:
         a6:0e:33:dd:cb:55:61:43:2e:ed:dd:0d:be:c7:89:23:14:90:
         f9:2b:4b:00:91:ce:5b:ae:ae:d5:d4:fb:7d:4e:86:cb:69:66:
         9e:c8:5c:00:2c:da:51:0d:02:c7:17:7e:aa:71:49:03:6c:40:
         34:68:d1:7f:ac:4b:b9:6c:09:b9:42:53:0c:7c:c1:ea:68:bc:
         84:b1:94:92:56:0d:ae:4c:98:f4:34:68:72:42:a0:46:ea:0b:
         95:f9:5b:f0:38:63:5e:68:ff:ad:f1:61:53:34:65:60:38:3b:
         5d:5b:29:7e:8b:8f:6b:de:8a:ce:77:59:7c:cd:3c:16:ea:80:
         3a:52:cd:21:ba:1b:ae:8b:99:be:0a:49:fb:9d:c4:cb:41:63:
         12:46:a1:48:7f:14:b4:f8:8e:79:75:fc:61:d8:b9:47:52:e9:
         cd:88:7a:1d:bd:50:b5:96:78:b1:90:1d:7b:a2:7b:2e:be:30:
         8c:cd:57:e5:48:a5:ea:66:22:23:39:4f:13:59:00:fe:78:bc:
         f9:1d:49:c3:5f:0b:68:c9:2c:9c:7a:32:e2:7f:46:e6:1f:51:
         e6:72:ef:1d:bf:ec:f1:29:4f:d2:bb:7e:02:c3:3f:06:59:4c:
         e0:0e:30:f2:b0:ae:bd:c0:a5:f9:ee:05:22:2d:4d:8d:67:17:
         82:fe:ae:ae:3f:40:66:b4:69:a6:4b:c7:56:da:57:ee:78:8e:
         ab:35:a2:b7:97:ca:15:bc:9e:89:b1:86:c0:ad:43:eb:08:4a:
         2c:0b:17:7b:bf:de:88:c0:ca:5e:a5:53:dc:f7:ea:fe:7d:e7:
         e3:9f:85:03:5c:df:87:90:69:0e:59:ec:64:1e:97:f3:e8:80:
         3e:73:ff:50:ba:6f:48:55
-----BEGIN CERTIFICATE-----
MIIFSzCCAzOgAwIBAgIFMUFZJm8wDQYJKoZIhvcNAQELBQAwJzElMCMGA1UEAwwc
U1JLMl9zaGEyNTZfNDA5Nl82NTUzN192M19jYTAeFw0xNTA3MTMyMTIwMDVaFw0z
MDA3MDkyMTIwMDVaMCoxKDAmBgNVBAMMH0NTRjJfMV9zaGEyNTZfNDA5Nl82NTUz
N192M191c3IwggIiMA0GCSqGSIb3DQEBAQUAA4ICDwAwggIKAoICAQDTDY8ivl08
Ek7sCfS2MUXYyZUDRauClThsz7qNVWnWMedxkoHz1oMfenjI2pXy4HV/KBLOL7m3
0OndsQGjjgbXfDJhi0U+7I3p1Wvjr2ESwypAX/+ds5vTgdWZzubn+NnaEz/U1ep+
4lN1esIH2gGZIj7CVc41qyCe+TqhGB8ej5V5wgQO1OuKa2KejCLXZZqZXS0jwg8e
Jvst2UD2rAk0o2bwiVGkrJNbYmT8BY0Yxy9YDU6nSgfF0aX/k+qBSGz/Ae6BlViT
DmBL7PMELqGdG3A4bqGPFMEjs487XWicqNya+vNuVxmakKB+BeO9voRBSPvCjdfW
svfMUq4t/TBKl2bpn2GdlQH9cljOjJ8/Wy9qVVSurbDz0xT+YLbiBWb9kElx2KIf
jCFwWKNyGrCUXhRW3EJrB+UpSfGNcsLqi/Xo55PxCD+K/a4laMvOCY67AizdQX4Q
AcDx8j7C2b9+hoOhVgiyoRCENA51rZWTRAZ+Sbj9qT35RelicLZMjVC6KYm77e2T
6wa8JUIlT/giQbUIGOytwB5f29+ZpxNUGeAbAZtf/VlUEJm/Br/kKCWkuJ2E46wn
FK8GWt54+cuIg4wcVuykZSdsXp0E+lto3hd4gmGCuK7yskDjKP4huIfqmyULTBDp
ViubCtVccMe0DtEWoP++O412XLtu9kfuPQIDAQABo3sweTAJBgNVHRMEAjAAMCwG
CWCGSAGG+EIBDQQfFh1PcGVuU1NMIEdlbmVyYXRlZCBDZXJ0aWZpY2F0ZTAdBgNV
HQ4EFgQUE3k9c7CeWH93Esm2L1IabGgSE2owHwYDVR0jBBgwFoAUFh6R+aCB3/gJ
XdD3adSuuAfLILYwDQYJKoZIhvcNAQELBQADggIBAKkYMQZWy8XWOua/zam1gdPh
b7fMyNj09WLM2RdYCGwBlCtnk6iLhhFs+Hu8b+F6Kf3jSNY1Wy1ww6SAer9W9/B0
XTAxTBXjquf9L6ICmjmuDZSzW/OtjeN6ounLv89tf8CchRn2XuFZDtRWvr3Fj3ab
l2LDKxmASwK7GzVnwO5Tt0ctWuzvcPTYB9O7TOhBd9bpA0WJLgdFm2Ndzreji38p
Fn9dzU0NreYWqnEEKhj+y62PlaYOM93LVWFDLu3dDb7HiSMUkPkrSwCRzluurtXU
+31OhstpZp7IXAAs2lENAscXfqpxSQNsQDRo0X+sS7lsCblCUwx8wepovISxlJJW
Da5MmPQ0aHJCoEbqC5X5W/A4Y15o/63xYVM0ZWA4O11bKX6Lj2veis53WXzNPBbq
gDpSzSG6G66Lmb4KSfudxMtBYxJGoUh/FLT4jnl1/GHYuUdS6c2Ieh29ULWWeLGQ
HXuiey6+MIzNV+VIpepmIiM5TxNZAP54vPkdScNfC2jJLJx6MuJ/RuYfUeZy7x2/
7PEpT9K7fgLDPwZZTOAOMPKwrr3ApfnuBSItTY1nF4L+rq4/QGa0aaZLx1baV+54
jqs1oreXyhW8nomxhsCtQ+sISiwLF3u/3ojAyl6lU9z36v595+OfhQNc34eQaQ5Z
7GQel/PogD5z/1C6b0hV
-----END CERTIFICATE-----
