Certificate:
    Data:
        Version: 3 (0x2)
        Serial Number: 211549759093 (0x3141592675)
    Signature Algorithm: sha256WithRSAEncryption
        Issuer: CN=SRK4_sha256_4096_65537_v3_ca
        Validity
            Not Before: Jul 13 21:21:09 2015 GMT
            Not After : Jul  9 21:21:09 2030 GMT
        Subject: CN=CSF4_1_sha256_4096_65537_v3_usr
        Subject Public Key Info:
            Public Key Algorithm: rsaEncryption
                Public-Key: (4096 bit)
                Modulus:
                    00:c9:87:d5:ad:10:8e:9f:89:cd:b9:06:e9:32:ca:
                    a1:4a:a3:c8:ae:01:5c:c4:64:e9:a6:8d:52:7c:e0:
                    0c:81:80:60:a8:7b:d4:a8:b6:d9:43:08:ac:46:73:
                    7b:c8:2d:e8:50:18:16:98:da:cc:20:1c:a0:03:72:
                    73:94:2a:ab:30:c1:8f:38:a6:e2:36:43:2d:31:6a:
                    4f:e9:b8:5d:a4:67:dd:88:56:5f:61:af:09:cd:cf:
                    9f:47:07:7f:73:1d:a6:2f:c2:4d:33:07:ef:12:c2:
                    0f:47:66:3b:6e:b5:c5:f8:a4:7a:d4:ae:e1:f8:94:
                    8a:0d:96:20:3c:8a:76:08:0a:ca:29:f5:a4:d8:75:
                    05:f7:d9:9d:04:ff:dc:8b:dd:4c:8f:e8:9f:32:ef:
                    43:32:8d:2a:99:0a:0b:54:d7:f9:59:32:f7:9e:11:
                    d4:47:e3:51:15:14:2a:f1:69:78:a3:de:09:34:7e:
                    8a:4a:73:f9:f0:12:76:51:b5:32:c4:74:12:99:71:
                    91:d2:c7:77:83:8f:6d:cc:26:b4:cc:08:3d:be:3e:
                    ab:f2:41:99:8d:31:ba:79:a9:ab:76:51:10:5c:bf:
                    12:a7:97:c6:22:b7:19:28:b8:2b:84:75:fa:ab:d8:
                    d8:bf:3a:6c:e5:0a:7e:5b:72:a7:83:8a:8d:1f:40:
                    62:74:80:ae:5b:89:46:73:1e:07:79:25:be:6b:45:
                    54:f8:55:d2:4e:47:17:21:41:35:9f:84:38:77:68:
                    f4:24:3c:52:09:45:62:cf:67:25:2c:2a:78:cd:cb:
                    e1:17:35:d3:28:50:48:cb:fc:81:b1:50:8f:47:f9:
                    e9:8b:50:d9:39:b4:7d:53:7f:c8:74:7f:16:9d:60:
                    00:4a:d3:fe:10:78:79:6a:60:6e:f3:b2:86:03:c4:
                    c4:10:82:ab:f9:17:08:98:8e:13:da:74:1e:e1:17:
                    7a:cc:30:04:9b:fc:a6:24:99:3b:6d:27:bd:ed:3f:
                    bb:83:e5:36:3e:47:32:4f:47:35:23:c6:cd:cc:db:
                    cd:e1:83:d6:a5:ff:8e:eb:65:47:81:22:a8:8b:45:
                    e5:92:3f:71:ec:14:81:73:60:e9:29:81:62:15:34:
                    8c:8c:66:29:8c:ae:05:d7:6b:57:1a:63:b0:29:9a:
                    36:72:d5:ed:da:6f:8d:c0:cb:67:af:e0:6a:fd:63:
                    0e:92:cf:cd:09:d7:fa:ad:91:28:fc:6d:90:bd:db:
                    c2:80:35:2e:64:25:0f:fc:43:33:3b:31:17:da:0d:
                    4e:76:80:8c:04:c2:9d:b6:f6:43:9f:ef:2b:e2:5f:
                    f1:09:f5:ae:f6:60:41:76:5e:80:4e:5b:13:65:46:
                    db:30:3f
                Exponent: 65537 (0x10001)
        X509v3 extensions:
            X509v3 Basic Constraints: 
                CA:FALSE
            Netscape Comment: 
                OpenSSL Generated Certificate
            X509v3 Subject Key Identifier: 
                E2:7D:A6:7C:6D:27:58:C7:B2:24:BB:B4:AA:25:40:73:26:B8:C6:4E
            X509v3 Authority Key Identifier: 
                keyid:86:9F:2C:13:44:60:E0:B2:D8:C7:F6:E4:CB:D1:82:EC:BE:49:5F:98

    Signature Algorithm: sha256WithRSAEncryption
         4e:c8:87:d1:08:23:83:38:cf:25:39:e1:e3:69:1f:67:fc:8b:
         b9:90:8a:aa:f2:e0:e5:63:40:10:8f:0a:71:7a:fb:15:31:65:
         10:88:b4:0f:fa:21:c8:84:d6:1c:62:19:5e:6f:9a:6a:97:b3:
         7e:68:87:f9:82:e7:60:0c:52:13:68:1d:4d:63:00:bd:06:de:
         a0:bc:6d:22:41:64:e6:d5:7c:3e:66:09:59:08:41:8c:51:a9:
         b4:67:15:09:a1:60:bc:6f:dc:3c:5e:70:40:2b:a1:04:01:ed:
         46:37:e7:ca:87:10:07:34:27:ec:e3:f3:76:2f:87:61:d4:6b:
         00:c9:d1:25:52:61:76:36:e0:8b:50:14:22:9a:f9:3c:b9:b7:
         03:40:46:71:49:c9:f2:fc:23:99:f7:ba:63:85:8d:06:40:db:
         5a:37:d1:84:35:53:02:31:29:e2:e8:09:f0:df:14:42:10:9d:
         0d:4a:ff:af:73:58:ce:2e:77:c9:27:e3:d6:07:28:eb:87:77:
         9d:e1:fd:b6:4b:9b:46:93:1b:72:46:00:cc:9f:2e:dc:ed:82:
         8a:14:a7:c5:ad:5b:a3:27:c5:4f:f1:5b:ff:12:bb:2b:c4:f4:
         8a:8d:ab:f9:7a:5b:9b:b7:34:14:00:8f:98:b7:c1:70:0b:76:
         fd:64:e3:5e:cf:9d:e8:5d:8a:82:a1:46:6d:61:74:d5:b7:44:
         16:f8:b0:ef:b9:74:e8:ca:ba:f5:39:02:11:e1:de:c3:1c:3d:
         cf:f7:bd:82:a0:06:3b:10:48:7b:f8:25:e6:40:0f:8c:92:6d:
         bf:28:92:33:3d:5d:78:8e:ed:4f:5e:aa:71:85:39:e3:61:32:
         31:fa:da:71:8a:70:d0:45:e2:13:22:9f:ac:30:7b:76:f4:d5:
         f3:e7:27:24:16:be:e3:12:c8:ac:68:54:8b:ba:cf:a2:cf:45:
         b1:5e:9e:66:87:4c:99:2a:76:6e:b3:01:cd:ff:da:64:56:5f:
         df:44:ab:be:0f:2d:ef:ad:93:48:38:82:74:ab:53:88:12:4b:
         fa:81:02:40:c9:51:67:f4:ca:c7:b4:df:42:b0:75:a6:7c:b1:
         73:f3:c4:c2:34:eb:57:b1:f5:de:18:76:23:f4:80:a6:07:42:
         19:93:9d:c6:9c:a2:a9:98:b3:88:c3:37:30:66:f5:fa:1b:8e:
         7d:2d:ea:ff:e8:71:17:9f:5b:8e:55:b2:a3:55:d4:0c:26:73:
         25:b0:57:1a:08:b3:58:e5:f2:1d:c0:75:d5:40:44:3c:c3:51:
         5e:71:24:96:99:97:79:3e:51:89:81:79:6f:1d:7f:60:17:4b:
         30:83:94:30:6f:95:3d:0b
-----BEGIN CERTIFICATE-----
MIIFSzCCAzOgAwIBAgIFMUFZJnUwDQYJKoZIhvcNAQELBQAwJzElMCMGA1UEAwwc
U1JLNF9zaGEyNTZfNDA5Nl82NTUzN192M19jYTAeFw0xNTA3MTMyMTIxMDlaFw0z
MDA3MDkyMTIxMDlaMCoxKDAmBgNVBAMMH0NTRjRfMV9zaGEyNTZfNDA5Nl82NTUz
N192M191c3IwggIiMA0GCSqGSIb3DQEBAQUAA4ICDwAwggIKAoICAQDJh9WtEI6f
ic25BukyyqFKo8iuAVzEZOmmjVJ84AyBgGCoe9SottlDCKxGc3vILehQGBaY2swg
HKADcnOUKqswwY84puI2Qy0xak/puF2kZ92IVl9hrwnNz59HB39zHaYvwk0zB+8S
wg9HZjtutcX4pHrUruH4lIoNliA8inYICsop9aTYdQX32Z0E/9yL3UyP6J8y70My
jSqZCgtU1/lZMveeEdRH41EVFCrxaXij3gk0fopKc/nwEnZRtTLEdBKZcZHSx3eD
j23MJrTMCD2+PqvyQZmNMbp5qat2URBcvxKnl8YitxkouCuEdfqr2Ni/OmzlCn5b
cqeDio0fQGJ0gK5biUZzHgd5Jb5rRVT4VdJORxchQTWfhDh3aPQkPFIJRWLPZyUs
KnjNy+EXNdMoUEjL/IGxUI9H+emLUNk5tH1Tf8h0fxadYABK0/4QeHlqYG7zsoYD
xMQQgqv5FwiYjhPadB7hF3rMMASb/KYkmTttJ73tP7uD5TY+RzJPRzUjxs3M283h
g9al/47rZUeBIqiLReWSP3HsFIFzYOkpgWIVNIyMZimMrgXXa1caY7ApmjZy1e3a
b43Ay2ev4Gr9Yw6Sz80J1/qtkSj8bZC928KANS5kJQ/8QzM7MRfaDU52gIwEwp22
9kOf7yviX/EJ9a72YEF2XoBOWxNlRtswPwIDAQABo3sweTAJBgNVHRMEAjAAMCwG
CWCGSAGG+EIBDQQfFh1PcGVuU1NMIEdlbmVyYXRlZCBDZXJ0aWZpY2F0ZTAdBgNV
HQ4EFgQU4n2mfG0nWMeyJLu0qiVAcya4xk4wHwYDVR0jBBgwFoAUhp8sE0Rg4LLY
x/bky9GC7L5JX5gwDQYJKoZIhvcNAQELBQADggIBAE7Ih9EII4M4zyU54eNpH2f8
i7mQiqry4OVjQBCPCnF6+xUxZRCItA/6IciE1hxiGV5vmmqXs35oh/mC52AMUhNo
HU1jAL0G3qC8bSJBZObVfD5mCVkIQYxRqbRnFQmhYLxv3DxecEAroQQB7UY358qH
EAc0J+zj83Yvh2HUawDJ0SVSYXY24ItQFCKa+Ty5twNARnFJyfL8I5n3umOFjQZA
21o30YQ1UwIxKeLoCfDfFEIQnQ1K/69zWM4ud8kn49YHKOuHd53h/bZLm0aTG3JG
AMyfLtztgooUp8WtW6MnxU/xW/8SuyvE9IqNq/l6W5u3NBQAj5i3wXALdv1k417P
nehdioKhRm1hdNW3RBb4sO+5dOjKuvU5AhHh3sMcPc/3vYKgBjsQSHv4JeZAD4yS
bb8okjM9XXiO7U9eqnGFOeNhMjH62nGKcNBF4hMin6wwe3b01fPnJyQWvuMSyKxo
VIu6z6LPRbFenmaHTJkqdm6zAc3/2mRWX99Eq74PLe+tk0g4gnSrU4gSS/qBAkDJ
UWf0yse030KwdaZ8sXPzxMI061ex9d4YdiP0gKYHQhmTncacoqmYs4jDNzBm9fob
jn0t6v/ocRefW45VsqNV1AwmcyWwVxoIs1jl8h3AddVARDzDUV5xJJaZl3k+UYmB
eW8df2AXSzCDlDBvlT0L
-----END CERTIFICATE-----
