Certificate:
    Data:
        Version: 3 (0x2)
        Serial Number: 211549759085 (0x314159266d)
    Signature Algorithm: sha256WithRSAEncryption
        Issuer: CN=SRK1_sha256_4096_65537_v3_ca
        Validity
            Not Before: Jul 13 21:19:33 2015 GMT
            Not After : Jul  9 21:19:33 2030 GMT
        Subject: CN=IMG1_1_sha256_4096_65537_v3_usr
        Subject Public Key Info:
            Public Key Algorithm: rsaEncryption
                Public-Key: (4096 bit)
                Modulus:
                    00:bb:c0:d0:fe:78:10:2c:73:1a:35:0b:7c:b6:ae:
                    8a:4e:79:c9:75:80:ac:4e:4e:1a:d5:7d:72:58:20:
                    ff:5a:a0:33:fa:d9:40:3c:5c:c4:53:c8:09:e0:62:
                    5b:1d:9b:c9:8a:26:e3:06:70:ab:de:40:2a:5f:8f:
                    2b:97:69:1c:0e:a4:0d:5c:91:46:4e:c3:f6:b6:90:
                    d2:d5:51:b5:6f:a6:3d:c1:5f:29:33:5c:54:73:12:
                    d2:ef:9b:d9:70:d3:9a:5c:5b:94:05:2c:9e:1e:1e:
                    1b:91:99:0f:1d:3e:d3:34:f7:f4:27:94:41:fc:98:
                    37:c8:7b:12:23:f4:a8:74:a9:3f:36:68:3f:66:6b:
                    a1:77:64:ca:6e:4c:c4:bc:39:cd:42:ad:f5:4d:84:
                    14:64:a5:c3:03:0a:9f:59:9f:bf:99:b0:2d:c2:41:
                    43:17:21:a2:88:45:25:cd:f2:c3:c3:8f:48:07:8a:
                    ff:49:fd:27:3a:15:66:a9:d3:c8:1c:4b:bc:11:99:
                    29:08:88:fd:e9:df:e7:62:03:51:12:e5:3f:5a:d3:
                    ba:e6:a4:dd:b2:20:0e:93:cb:2c:a5:eb:d9:e5:c6:
                    ad:35:d0:3b:d4:a6:fd:84:db:f2:33:8e:c1:77:e1:
                    30:e9:16:b6:3f:14:ae:1a:86:ea:7c:cc:ca:30:aa:
                    f5:ce:83:53:83:ba:e3:1f:e6:2f:3d:2d:52:ae:98:
                    89:59:4e:17:35:4f:eb:9d:75:87:29:e0:87:26:6c:
                    dd:5b:82:62:8a:b0:39:a3:8c:0a:b2:44:59:6e:0e:
                    86:87:cd:39:d3:5b:9e:55:76:68:e6:66:aa:c9:05:
                    e4:1d:3a:a3:1b:fb:0b:cc:d6:08:c0:2a:fb:92:3c:
                    99:ec:7c:62:f0:41:e3:34:90:dd:9b:16:cc:74:16:
                    6d:6a:68:c2:f4:85:38:86:19:a2:9b:b8:d1:d8:24:
                    b8:81:42:d0:4d:74:bb:ac:a6:25:75:b8:34:cf:6e:
                    f1:d8:68:e2:10:a1:9e:ac:06:c8:32:c7:6c:16:f8:
                    b6:9f:93:09:ee:01:0d:12:01:fe:49:e0:c5:79:95:
                    f8:92:89:50:ee:ae:e3:17:f7:8a:65:22:58:08:f8:
                    e0:55:80:a6:46:e0:e3:34:55:60:74:e1:65:4c:7d:
                    cd:4a:7a:ab:87:c4:cb:b0:01:e0:57:df:ab:03:4c:
                    be:f8:8d:01:8e:c3:83:dd:58:b1:0e:91:99:34:aa:
                    76:a1:7d:dd:46:20:b3:28:09:d0:e8:12:a6:b6:0d:
                    89:ff:12:2f:81:d4:63:70:82:04:79:45:0d:09:11:
                    a2:a2:ad:81:67:e1:31:fd:5c:80:9f:b6:45:03:11:
                    1f:69:2d
                Exponent: 65537 (0x10001)
        X509v3 extensions:
            X509v3 Basic Constraints: 
                CA:FALSE
            Netscape Comment: 
                OpenSSL Generated Certificate
            X509v3 Subject Key Identifier: 
                08:98:B9:EC:0C:21:18:27:B6:4F:E2:DB:EC:E8:7A:7C:94:FB:DF:90
            X509v3 Authority Key Identifier: 
                keyid:7C:C8:40:4B:87:97:21:1A:87:43:15:11:FF:86:9F:73:31:A8:92:3D

    Signature Algorithm: sha256WithRSAEncryption
         a5:ef:eb:95:ef:e1:03:7e:37:6a:8f:91:81:05:ac:34:10:6f:
         4d:c7:75:03:9a:37:17:6a:6a:1c:e9:22:2f:18:c2:34:48:4b:
         b3:cf:0b:ad:52:2b:6f:e6:d4:d5:71:7e:cd:c1:c5:10:2b:6c:
         79:9a:ee:4e:ba:de:e1:b6:5d:f0:6d:69:0b:ed:10:17:f2:f6:
         5e:f6:ae:6e:24:21:05:82:53:ff:c6:2a:a8:bd:f7:4c:dd:29:
         bb:68:d4:35:03:18:f7:0d:39:63:95:b3:46:ec:96:fa:b7:3f:
         26:58:94:dc:f7:e2:5c:f0:eb:88:ef:71:5e:34:46:00:a0:c1:
         50:34:c8:9a:c3:a1:1c:25:30:94:c7:6f:bd:c5:25:87:70:0c:
         06:e9:c7:3e:fa:16:6f:c4:ce:e8:ae:f4:13:2e:1d:9d:c3:e1:
         95:56:a0:7d:c8:ac:ff:43:e0:ed:ab:53:10:18:34:fd:55:88:
         db:b5:7f:08:21:6f:f7:45:aa:38:98:f5:07:35:f9:81:35:f9:
         64:cc:9c:a4:6d:81:f8:83:64:dd:1a:0c:82:6e:5e:4f:19:9c:
         1f:62:46:fd:f5:c3:b2:55:b5:28:9c:44:56:ef:91:cc:75:0f:
         45:6c:d7:01:d4:c6:a0:eb:e5:1c:8a:bd:1b:2e:50:46:12:37:
         68:60:a1:73:8b:45:af:88:de:a6:18:28:f7:cb:6f:e6:8e:71:
         01:b8:56:a3:33:44:b7:b0:9c:0c:56:55:11:db:1e:e3:e3:df:
         0d:72:30:ea:05:03:0e:b0:c1:7e:9a:9c:ee:71:f3:66:fe:82:
         7d:96:b3:4b:80:0e:78:04:a5:25:17:bd:70:57:49:53:a1:f9:
         42:a7:0c:54:6e:20:e6:2b:12:e6:1c:ee:77:1b:68:d0:2b:63:
         2c:a1:ef:2b:f2:0b:7c:97:f7:80:50:a7:9e:14:15:61:75:b6:
         27:64:4b:27:f7:0a:7e:95:1d:a0:70:89:df:ba:2e:b3:2a:98:
         f5:04:80:1d:a6:db:5b:b3:c6:63:32:32:6d:a3:07:ca:0d:79:
         41:15:b3:83:9a:44:a5:ba:1d:2d:03:b3:2a:03:c3:8b:c5:d9:
         6d:c3:45:f9:36:0e:4d:8d:21:5a:69:da:6c:00:a8:0a:41:05:
         65:c4:ea:af:32:a1:b8:e6:60:83:02:6d:e2:c1:cb:a2:45:5d:
         ca:b8:00:93:74:74:d9:1c:03:b1:18:96:f3:01:5d:a0:f2:af:
         d6:20:ff:3a:8b:97:d9:8b:35:e8:10:c9:98:0a:e3:f4:bf:af:
         74:e9:ad:9a:5b:5c:79:0c:7b:e2:b1:82:c2:71:e1:36:4d:da:
         31:f0:e9:0a:ef:4b:18:46
-----BEGIN CERTIFICATE-----
MIIFSzCCAzOgAwIBAgIFMUFZJm0wDQYJKoZIhvcNAQELBQAwJzElMCMGA1UEAwwc
U1JLMV9zaGEyNTZfNDA5Nl82NTUzN192M19jYTAeFw0xNTA3MTMyMTE5MzNaFw0z
MDA3MDkyMTE5MzNaMCoxKDAmBgNVBAMMH0lNRzFfMV9zaGEyNTZfNDA5Nl82NTUz
N192M191c3IwggIiMA0GCSqGSIb3DQEBAQUAA4ICDwAwggIKAoICAQC7wND+eBAs
cxo1C3y2ropOecl1gKxOThrVfXJYIP9aoDP62UA8XMRTyAngYlsdm8mKJuMGcKve
QCpfjyuXaRwOpA1ckUZOw/a2kNLVUbVvpj3BXykzXFRzEtLvm9lw05pcW5QFLJ4e
HhuRmQ8dPtM09/QnlEH8mDfIexIj9Kh0qT82aD9ma6F3ZMpuTMS8Oc1CrfVNhBRk
pcMDCp9Zn7+ZsC3CQUMXIaKIRSXN8sPDj0gHiv9J/Sc6FWap08gcS7wRmSkIiP3p
3+diA1ES5T9a07rmpN2yIA6Tyyyl69nlxq010DvUpv2E2/IzjsF34TDpFrY/FK4a
hup8zMowqvXOg1ODuuMf5i89LVKumIlZThc1T+uddYcp4IcmbN1bgmKKsDmjjAqy
RFluDoaHzTnTW55VdmjmZqrJBeQdOqMb+wvM1gjAKvuSPJnsfGLwQeM0kN2bFsx0
Fm1qaML0hTiGGaKbuNHYJLiBQtBNdLuspiV1uDTPbvHYaOIQoZ6sBsgyx2wW+Laf
kwnuAQ0SAf5J4MV5lfiSiVDuruMX94plIlgI+OBVgKZG4OM0VWB04WVMfc1KequH
xMuwAeBX36sDTL74jQGOw4PdWLEOkZk0qnahfd1GILMoCdDoEqa2DYn/Ei+B1GNw
ggR5RQ0JEaKirYFn4TH9XICftkUDER9pLQIDAQABo3sweTAJBgNVHRMEAjAAMCwG
CWCGSAGG+EIBDQQfFh1PcGVuU1NMIEdlbmVyYXRlZCBDZXJ0aWZpY2F0ZTAdBgNV
HQ4EFgQUCJi57AwhGCe2T+Lb7Oh6fJT735AwHwYDVR0jBBgwFoAUfMhAS4eXIRqH
QxUR/4afczGokj0wDQYJKoZIhvcNAQELBQADggIBAKXv65Xv4QN+N2qPkYEFrDQQ
b03HdQOaNxdqahzpIi8YwjRIS7PPC61SK2/m1NVxfs3BxRArbHma7k663uG2XfBt
aQvtEBfy9l72rm4kIQWCU//GKqi990zdKbto1DUDGPcNOWOVs0bslvq3PyZYlNz3
4lzw64jvcV40RgCgwVA0yJrDoRwlMJTHb73FJYdwDAbpxz76Fm/Ezuiu9BMuHZ3D
4ZVWoH3IrP9D4O2rUxAYNP1ViNu1fwghb/dFqjiY9Qc1+YE1+WTMnKRtgfiDZN0a
DIJuXk8ZnB9iRv31w7JVtSicRFbvkcx1D0Vs1wHUxqDr5RyKvRsuUEYSN2hgoXOL
Ra+I3qYYKPfLb+aOcQG4VqMzRLewnAxWVRHbHuPj3w1yMOoFAw6wwX6anO5x82b+
gn2Ws0uADngEpSUXvXBXSVOh+UKnDFRuIOYrEuYc7ncbaNArYyyh7yvyC3yX94BQ
p54UFWF1tidkSyf3Cn6VHaBwid+6LrMqmPUEgB2m21uzxmMyMm2jB8oNeUEVs4Oa
RKW6HS0DsyoDw4vF2W3DRfk2Dk2NIVpp2mwAqApBBWXE6q8yobjmYIMCbeLBy6JF
Xcq4AJN0dNkcA7EYlvMBXaDyr9Yg/zqLl9mLNegQyZgK4/S/r3TprZpbXHkMe+Kx
gsJx4TZN2jHw6QrvSxhG
-----END CERTIFICATE-----
