Certificate:
    Data:
        Version: 3 (0x2)
        Serial Number: 211549759088 (0x3141592670)
    Signature Algorithm: sha256WithRSAEncryption
        Issuer: CN=SRK2_sha256_4096_65537_v3_ca
        Validity
            Not Before: Jul 13 21:20:11 2015 GMT
            Not After : Jul  9 21:20:11 2030 GMT
        Subject: CN=IMG2_1_sha256_4096_65537_v3_usr
        Subject Public Key Info:
            Public Key Algorithm: rsaEncryption
                Public-Key: (4096 bit)
                Modulus:
                    00:bd:12:b8:eb:2f:93:31:5a:94:3a:67:5d:67:88:
                    1b:b3:78:e8:fc:19:13:5a:f1:a1:5e:3b:80:03:e2:
                    86:49:e2:d5:88:c8:cc:c9:b5:34:35:6c:58:91:51:
                    af:fe:c3:e3:bb:cf:9b:54:03:c2:09:a9:76:a7:03:
                    98:14:b6:78:b1:95:a5:18:18:95:bc:f7:c2:18:13:
                    83:88:bd:58:e5:8b:a1:da:88:37:56:89:b9:34:0f:
                    1c:d8:bf:10:08:cb:49:4f:64:50:eb:a5:d3:0b:ed:
                    17:99:5c:ad:9c:29:46:d2:6e:21:81:b2:7b:03:04:
                    37:b7:80:e0:c7:72:67:33:63:6f:7d:e5:a9:f4:3e:
                    b7:c5:2c:2a:7a:a5:2a:8a:a0:f4:80:d3:6e:25:31:
                    22:c6:5c:c2:3a:02:04:91:30:92:65:7f:86:f5:34:
                    1a:3a:cf:e6:ee:80:ca:45:e0:c3:8c:0f:e2:64:39:
                    41:f8:7d:3e:fc:ec:3a:3a:f8:b3:c9:0f:20:74:ea:
                    dc:d7:08:ba:5a:72:8b:04:7d:33:78:1d:7b:0c:81:
                    14:15:0e:61:fa:c7:48:b2:4b:df:ca:f6:82:bc:66:
                    2c:3e:90:9f:14:f4:d3:f6:62:34:4f:59:4c:6e:ea:
                    13:a1:a3:d4:f2:b4:8d:33:fe:08:25:98:92:27:25:
                    e9:db:f8:00:83:1e:3d:f1:ce:39:de:59:b3:57:63:
                    4f:0b:9f:3b:6a:e4:de:23:70:2a:a7:6c:91:0d:eb:
                    06:94:de:bc:c1:aa:f3:96:83:03:b3:83:5b:a7:2f:
                    e1:c8:a0:d8:88:c3:c4:ca:46:01:60:b0:d9:ee:25:
                    2e:5a:6f:53:cc:db:31:c4:c4:ad:35:c8:3a:8a:a8:
                    1b:d4:f4:2c:c5:d3:64:aa:48:88:76:a7:92:d4:b7:
                    d2:d3:9b:11:16:24:54:e4:d7:06:e1:8f:1a:1b:00:
                    00:25:4e:c3:46:e0:9c:79:6c:e5:93:d6:fa:d4:dc:
                    aa:3f:13:f7:90:10:64:a5:85:55:02:b8:b3:f7:20:
                    87:5b:1d:5b:20:6c:70:37:1d:40:d8:6c:63:aa:40:
                    e5:d2:b7:36:13:53:bd:8b:f6:19:35:c9:ca:79:91:
                    63:32:6c:f3:a1:11:fc:6b:14:f5:ca:60:73:15:a1:
                    fe:bf:d8:7f:48:1c:84:20:fa:a9:b1:a3:d6:45:23:
                    1c:da:56:b7:7f:73:03:fd:f3:f7:c1:d7:66:58:9c:
                    7c:8f:d2:4a:98:c2:71:49:47:4b:6d:8f:90:07:ba:
                    e2:20:25:d7:47:94:c6:a9:d5:ba:aa:3f:94:03:5d:
                    fa:af:2b:90:7c:06:a5:46:f6:08:c5:9b:a8:3f:e4:
                    7f:3d:f5
                Exponent: 65537 (0x10001)
        X509v3 extensions:
            X509v3 Basic Constraints: 
                CA:FALSE
            Netscape Comment: 
                OpenSSL Generated Certificate
            X509v3 Subject Key Identifier: 
                7A:A0:58:86:9F:DF:FC:C1:BF:BC:25:DA:DB:78:5E:71:86:25:16:A1
            X509v3 Authority Key Identifier: 
                keyid:16:1E:91:F9:A0:81:DF:F8:09:5D:D0:F7:69:D4:AE:B8:07:CB:20:B6

    Signature Algorithm: sha256WithRSAEncryption
         98:8b:ef:6e:f0:9e:73:db:cd:11:ae:08:a1:7a:1b:30:2f:12:
         f0:57:a3:0b:89:0f:ae:26:4b:f8:5f:db:c1:b3:5f:19:af:84:
         54:19:3d:db:cd:62:f8:5a:d7:a0:1f:a2:18:34:9f:df:77:e8:
         d6:ae:81:9a:f6:88:26:39:4f:f7:e3:b9:67:f3:f7:f9:9b:01:
         ec:08:57:36:e4:71:e1:42:4d:b2:17:de:31:d2:e9:73:e1:75:
         13:75:0e:8c:ba:3e:d3:2a:9e:e4:e9:0b:42:22:db:33:dd:5d:
         c0:71:0b:56:a4:66:21:25:01:52:8f:7e:16:d1:9f:d0:21:cd:
         f1:fb:3f:ee:6f:15:d3:99:f0:39:da:95:cc:09:1d:2b:ed:14:
         9f:b1:ae:c1:60:d1:1d:69:a4:5d:a5:7c:49:26:55:95:0d:79:
         15:f8:57:74:4f:b7:a8:fa:8c:72:d2:c4:ef:78:73:e3:a7:95:
         c8:bb:11:0a:38:b9:14:5e:44:79:96:a9:3c:2d:9d:31:f5:24:
         a1:bd:22:10:45:c3:1f:8b:c0:90:e1:b0:3b:50:dd:ed:97:06:
         43:00:2f:9e:2a:10:b9:60:e3:7a:c5:dd:29:3f:8d:14:e3:be:
         6f:53:06:93:45:77:d8:07:26:28:65:81:f9:bc:db:92:41:79:
         d3:0a:d9:8f:f5:ab:bc:72:18:85:f1:1b:5f:e3:b8:09:2f:0f:
         c4:b9:25:cd:57:c4:1b:f7:94:c7:84:0c:a7:55:c5:89:c3:a3:
         a7:cf:b8:88:da:55:46:b0:c6:3c:d1:51:f6:24:16:37:a1:26:
         a0:ef:3c:04:c8:40:65:70:19:88:c1:fd:8e:a5:1b:15:3f:fb:
         63:b6:1b:6f:b4:f5:ad:d5:a7:09:7d:90:a7:56:dd:ed:d3:b8:
         48:a4:67:ef:d4:88:81:57:4f:2a:71:6b:3c:4b:1f:77:5d:fa:
         e4:b3:fb:66:c4:ee:58:76:ef:d6:b1:a3:78:24:fe:6c:c5:34:
         66:fa:05:b0:ce:8c:d2:18:f9:f4:fd:f8:b0:6f:2b:50:38:03:
         07:09:f3:7a:ac:04:07:01:f6:57:a2:c3:50:49:9a:88:b3:86:
         48:f7:50:8f:02:c2:75:97:eb:0e:da:d3:1a:0a:c4:ce:e6:13:
         f5:60:0d:ef:aa:b5:b5:d8:11:65:b4:0b:58:dd:6c:71:cd:53:
         80:25:78:80:00:5c:ff:06:b2:f7:33:14:e3:4a:84:38:1b:4f:
         02:36:2e:10:b8:d1:54:92:ab:d7:ef:46:c4:73:0e:57:d9:de:
         ab:09:37:7f:59:2d:5a:64:b9:2b:a2:9b:98:2b:8b:ae:10:b2:
         e1:43:8f:c3:fb:e0:f9:d7
-----BEGIN CERTIFICATE-----
MIIFSzCCAzOgAwIBAgIFMUFZJnAwDQYJKoZIhvcNAQELBQAwJzElMCMGA1UEAwwc
U1JLMl9zaGEyNTZfNDA5Nl82NTUzN192M19jYTAeFw0xNTA3MTMyMTIwMTFaFw0z
MDA3MDkyMTIwMTFaMCoxKDAmBgNVBAMMH0lNRzJfMV9zaGEyNTZfNDA5Nl82NTUz
N192M191c3IwggIiMA0GCSqGSIb3DQEBAQUAA4ICDwAwggIKAoICAQC9ErjrL5Mx
WpQ6Z11niBuzeOj8GRNa8aFeO4AD4oZJ4tWIyMzJtTQ1bFiRUa/+w+O7z5tUA8IJ
qXanA5gUtnixlaUYGJW898IYE4OIvVjli6HaiDdWibk0DxzYvxAIy0lPZFDrpdML
7ReZXK2cKUbSbiGBsnsDBDe3gODHcmczY2995an0PrfFLCp6pSqKoPSA024lMSLG
XMI6AgSRMJJlf4b1NBo6z+bugMpF4MOMD+JkOUH4fT787Do6+LPJDyB06tzXCLpa
cosEfTN4HXsMgRQVDmH6x0iyS9/K9oK8Ziw+kJ8U9NP2YjRPWUxu6hOho9TytI0z
/gglmJInJenb+ACDHj3xzjneWbNXY08Lnztq5N4jcCqnbJEN6waU3rzBqvOWgwOz
g1unL+HIoNiIw8TKRgFgsNnuJS5ab1PM2zHExK01yDqKqBvU9CzF02SqSIh2p5LU
t9LTmxEWJFTk1wbhjxobAAAlTsNG4Jx5bOWT1vrU3Ko/E/eQEGSlhVUCuLP3IIdb
HVsgbHA3HUDYbGOqQOXStzYTU72L9hk1ycp5kWMybPOhEfxrFPXKYHMVof6/2H9I
HIQg+qmxo9ZFIxzaVrd/cwP98/fB12ZYnHyP0kqYwnFJR0ttj5AHuuIgJddHlMap
1bqqP5QDXfqvK5B8BqVG9gjFm6g/5H899QIDAQABo3sweTAJBgNVHRMEAjAAMCwG
CWCGSAGG+EIBDQQfFh1PcGVuU1NMIEdlbmVyYXRlZCBDZXJ0aWZpY2F0ZTAdBgNV
HQ4EFgQUeqBYhp/f/MG/vCXa23hecYYlFqEwHwYDVR0jBBgwFoAUFh6R+aCB3/gJ
XdD3adSuuAfLILYwDQYJKoZIhvcNAQELBQADggIBAJiL727wnnPbzRGuCKF6GzAv
EvBXowuJD64mS/hf28GzXxmvhFQZPdvNYvha16Afohg0n9936NaugZr2iCY5T/fj
uWfz9/mbAewIVzbkceFCTbIX3jHS6XPhdRN1Doy6PtMqnuTpC0Ii2zPdXcBxC1ak
ZiElAVKPfhbRn9AhzfH7P+5vFdOZ8DnalcwJHSvtFJ+xrsFg0R1ppF2lfEkmVZUN
eRX4V3RPt6j6jHLSxO94c+Onlci7EQo4uRReRHmWqTwtnTH1JKG9IhBFwx+LwJDh
sDtQ3e2XBkMAL54qELlg43rF3Sk/jRTjvm9TBpNFd9gHJihlgfm825JBedMK2Y/1
q7xyGIXxG1/juAkvD8S5Jc1XxBv3lMeEDKdVxYnDo6fPuIjaVUawxjzRUfYkFjeh
JqDvPATIQGVwGYjB/Y6lGxU/+2O2G2+09a3Vpwl9kKdW3e3TuEikZ+/UiIFXTypx
azxLH3dd+uSz+2bE7lh279axo3gk/mzFNGb6BbDOjNIY+fT9+LBvK1A4AwcJ83qs
BAcB9leiw1BJmoizhkj3UI8CwnWX6w7a0xoKxM7mE/VgDe+qtbXYEWW0C1jdbHHN
U4AleIAAXP8GsvczFONKhDgbTwI2LhC40VSSq9fvRsRzDlfZ3qsJN39ZLVpkuSui
m5gri64QsuFDj8P74PnX
-----END CERTIFICATE-----
