Certificate:
    Data:
        Version: 3 (0x2)
        Serial Number: 211549759091 (0x3141592673)
    Signature Algorithm: sha256WithRSAEncryption
        Issuer: CN=SRK3_sha256_4096_65537_v3_ca
        Validity
            Not Before: Jul 13 21:20:39 2015 GMT
            Not After : Jul  9 21:20:39 2030 GMT
        Subject: CN=IMG3_1_sha256_4096_65537_v3_usr
        Subject Public Key Info:
            Public Key Algorithm: rsaEncryption
                Public-Key: (4096 bit)
                Modulus:
                    00:ac:cd:e0:77:23:36:3a:12:5b:7c:cc:35:6f:6a:
                    86:dd:53:4c:70:06:08:9b:bd:bf:8d:78:a3:1e:6a:
                    44:57:5f:76:b0:32:a6:ed:d1:ba:90:da:3e:3b:bd:
                    a9:3e:45:9e:b1:df:19:5c:e1:09:9d:51:bb:78:a1:
                    98:9f:29:da:14:dd:7b:1b:38:d5:77:bb:c6:4b:8f:
                    48:63:d2:ff:f0:79:f0:03:ab:b6:40:f0:b1:60:1c:
                    14:40:b7:fd:61:42:49:17:7c:92:fc:72:0d:25:1a:
                    ae:cb:b7:6d:15:24:1a:92:a7:bf:04:c5:5c:74:36:
                    6b:5e:b0:01:9b:2b:e7:f8:09:4a:6f:f4:b0:b1:6e:
                    1d:2d:c5:ea:5f:65:e6:fc:fd:0d:ab:d4:0e:d3:d5:
                    86:5e:1e:ed:11:da:77:94:74:21:69:9e:3c:4b:d9:
                    7e:7f:85:41:e6:f8:ad:d3:e2:48:05:8d:28:52:c3:
                    5b:73:98:c4:0b:f9:29:0e:e3:4c:5a:c5:e7:23:3a:
                    76:de:fd:12:e6:85:26:29:4d:48:c7:01:ac:d8:e8:
                    af:aa:23:fb:22:fc:c0:2f:2a:64:68:e5:54:ad:23:
                    aa:68:a1:73:95:bd:ba:1e:c8:60:7d:a1:05:a9:50:
                    36:19:3b:a4:b5:f0:a3:be:8e:c0:26:b7:ee:07:8a:
                    3f:6b:23:0c:a0:83:6a:06:d6:ae:93:09:9f:ab:4b:
                    58:02:2c:63:0a:cb:d5:eb:b9:5d:77:a6:a7:23:5b:
                    5f:66:7f:f2:85:87:99:89:6d:55:44:1f:b1:7f:13:
                    37:3c:a5:5a:0c:3d:8f:77:0e:15:b7:bf:9f:32:66:
                    42:c5:ee:c7:e2:cf:90:bb:94:79:f4:bc:78:d5:42:
                    1b:f9:d9:4c:15:2b:a2:fa:6b:4b:16:ad:0f:a5:21:
                    f7:f4:7d:73:e2:9c:c4:e4:78:85:93:1e:1b:f5:3e:
                    53:6b:ec:9b:98:11:e8:36:1d:84:31:e4:b5:88:32:
                    29:e5:8e:f4:1e:e8:f4:0d:ca:9c:a4:d4:f0:0c:0e:
                    c1:44:45:f5:9e:9f:42:01:21:38:27:a5:c8:63:e9:
                    34:f1:08:46:1e:dc:84:e4:11:de:10:42:f0:20:ce:
                    d3:6d:f7:e4:85:65:10:08:30:40:5f:f1:94:45:a9:
                    bb:87:26:b8:ff:33:65:60:f1:93:47:36:7d:fc:ed:
                    48:67:41:ef:07:88:3f:f8:7d:58:d4:fa:a0:b9:6d:
                    19:02:4a:29:0e:d9:e0:ed:95:69:23:ef:4a:e0:e8:
                    09:29:d1:a7:ce:62:e4:e3:38:c7:4e:2d:39:a2:5f:
                    1d:57:4a:dc:21:88:84:4a:f2:f8:fe:75:ac:f0:03:
                    24:17:11
                Exponent: 65537 (0x10001)
        X509v3 extensions:
            X509v3 Basic Constraints: 
                CA:FALSE
            Netscape Comment: 
                OpenSSL Generated Certificate
            X509v3 Subject Key Identifier: 
                37:7C:31:FE:A2:D3:C6:71:22:A6:C7:20:C7:62:1E:70:F1:66:2C:0C
            X509v3 Authority Key Identifier: 
                keyid:AB:DC:18:84:CE:8C:12:82:05:78:62:5E:8A:11:4E:BE:F3:B1:36:F5

    Signature Algorithm: sha256WithRSAEncryption
         35:bc:d6:ba:8b:93:7a:35:7a:e8:63:96:09:66:65:74:60:ae:
         73:04:85:19:e4:f9:b9:dc:eb:67:8e:11:41:f0:34:c2:c2:46:
         8f:c4:40:c5:51:87:53:ff:d2:62:09:6b:8c:50:29:d7:19:7a:
         fe:ee:56:dd:c1:8a:40:67:17:13:db:92:c0:d5:d9:78:5f:1c:
         ab:6b:6c:a2:f4:ea:55:68:ff:29:e3:54:7b:d8:a5:91:fd:f0:
         b5:f0:54:eb:a7:2b:f5:4c:0d:63:34:da:0b:35:75:6d:90:8d:
         df:6f:ac:0b:12:07:aa:6a:47:46:62:fd:66:54:b2:72:d1:7c:
         59:67:73:8c:ae:4e:fe:38:81:e5:0b:ab:03:20:24:af:a3:70:
         d5:b8:7e:83:ed:a1:99:a9:cd:64:19:3c:c4:27:a6:b7:1d:4c:
         cf:bc:78:48:80:eb:b8:ee:01:c2:e7:13:c9:c0:b0:da:a0:73:
         31:79:aa:8c:77:f3:2e:f8:7f:98:c2:26:4e:1d:aa:ef:22:13:
         30:40:5c:1e:1d:32:83:cf:b6:96:ee:44:ef:61:d7:d8:d1:f7:
         c9:df:a5:95:3b:b7:15:1d:29:37:03:8b:53:42:7e:69:81:ee:
         f5:5d:bf:1d:15:84:66:97:6b:aa:ad:63:ca:6b:19:90:59:ef:
         e3:97:cc:81:90:47:01:33:d6:1f:2d:91:9c:8e:dd:c3:d2:91:
         7f:52:c0:88:bd:94:d5:b3:de:56:84:b0:4f:c8:bb:61:f2:0b:
         4a:a8:1d:91:38:af:52:82:94:39:90:3c:d8:85:ab:12:5d:b6:
         a9:61:e7:25:9d:9a:2c:2a:c7:53:42:ff:31:b8:f4:60:91:25:
         5e:10:fb:47:4d:81:02:92:a4:67:91:f0:05:d7:bd:ad:89:28:
         56:6e:73:03:ae:a5:65:8a:50:b6:27:ab:af:2c:59:44:13:61:
         d4:ff:aa:f1:43:e0:2c:3a:fe:a1:c2:a2:d5:48:7f:3b:21:99:
         9c:52:17:bd:24:14:dc:ef:4a:79:90:2a:42:70:91:08:7f:42:
         95:59:a7:db:21:0e:51:a2:08:b5:86:93:68:b3:0c:a0:39:75:
         14:7f:2b:b1:8a:12:6a:24:f8:96:84:6e:96:48:77:12:76:2c:
         38:d5:98:13:19:d5:c1:07:e9:b8:20:3c:42:a9:c5:20:6a:a7:
         72:de:eb:56:65:1e:f6:51:54:4e:e1:24:f5:69:47:55:eb:ae:
         06:f4:ab:3b:7c:7b:9a:88:8c:9d:9f:e5:1b:0a:bc:93:04:59:
         7b:a6:c6:32:9e:d9:00:7b:0a:9f:cd:ca:56:5d:09:58:99:69:
         a5:5b:21:97:01:20:94:93
-----BEGIN CERTIFICATE-----
MIIFSzCCAzOgAwIBAgIFMUFZJnMwDQYJKoZIhvcNAQELBQAwJzElMCMGA1UEAwwc
U1JLM19zaGEyNTZfNDA5Nl82NTUzN192M19jYTAeFw0xNTA3MTMyMTIwMzlaFw0z
MDA3MDkyMTIwMzlaMCoxKDAmBgNVBAMMH0lNRzNfMV9zaGEyNTZfNDA5Nl82NTUz
N192M191c3IwggIiMA0GCSqGSIb3DQEBAQUAA4ICDwAwggIKAoICAQCszeB3IzY6
Elt8zDVvaobdU0xwBgibvb+NeKMeakRXX3awMqbt0bqQ2j47vak+RZ6x3xlc4Qmd
Ubt4oZifKdoU3XsbONV3u8ZLj0hj0v/wefADq7ZA8LFgHBRAt/1hQkkXfJL8cg0l
Gq7Lt20VJBqSp78ExVx0NmtesAGbK+f4CUpv9LCxbh0txepfZeb8/Q2r1A7T1YZe
Hu0R2neUdCFpnjxL2X5/hUHm+K3T4kgFjShSw1tzmMQL+SkO40xaxecjOnbe/RLm
hSYpTUjHAazY6K+qI/si/MAvKmRo5VStI6pooXOVvboeyGB9oQWpUDYZO6S18KO+
jsAmt+4Hij9rIwygg2oG1q6TCZ+rS1gCLGMKy9XruV13pqcjW19mf/KFh5mJbVVE
H7F/Ezc8pVoMPY93DhW3v58yZkLF7sfiz5C7lHn0vHjVQhv52UwVK6L6a0sWrQ+l
Iff0fXPinMTkeIWTHhv1PlNr7JuYEeg2HYQx5LWIMinljvQe6PQNypyk1PAMDsFE
RfWen0IBITgnpchj6TTxCEYe3ITkEd4QQvAgztNt9+SFZRAIMEBf8ZRFqbuHJrj/
M2Vg8ZNHNn387UhnQe8HiD/4fVjU+qC5bRkCSikO2eDtlWkj70rg6Akp0afOYuTj
OMdOLTmiXx1XStwhiIRK8vj+dazwAyQXEQIDAQABo3sweTAJBgNVHRMEAjAAMCwG
CWCGSAGG+EIBDQQfFh1PcGVuU1NMIEdlbmVyYXRlZCBDZXJ0aWZpY2F0ZTAdBgNV
HQ4EFgQUN3wx/qLTxnEipscgx2IecPFmLAwwHwYDVR0jBBgwFoAUq9wYhM6MEoIF
eGJeihFOvvOxNvUwDQYJKoZIhvcNAQELBQADggIBADW81rqLk3o1euhjlglmZXRg
rnMEhRnk+bnc62eOEUHwNMLCRo/EQMVRh1P/0mIJa4xQKdcZev7uVt3BikBnFxPb
ksDV2XhfHKtrbKL06lVo/ynjVHvYpZH98LXwVOunK/VMDWM02gs1dW2Qjd9vrAsS
B6pqR0Zi/WZUsnLRfFlnc4yuTv44geULqwMgJK+jcNW4foPtoZmpzWQZPMQnprcd
TM+8eEiA67juAcLnE8nAsNqgczF5qox38y74f5jCJk4dqu8iEzBAXB4dMoPPtpbu
RO9h19jR98nfpZU7txUdKTcDi1NCfmmB7vVdvx0VhGaXa6qtY8prGZBZ7+OXzIGQ
RwEz1h8tkZyO3cPSkX9SwIi9lNWz3laEsE/Iu2HyC0qoHZE4r1KClDmQPNiFqxJd
tqlh5yWdmiwqx1NC/zG49GCRJV4Q+0dNgQKSpGeR8AXXva2JKFZucwOupWWKULYn
q68sWUQTYdT/qvFD4Cw6/qHCotVIfzshmZxSF70kFNzvSnmQKkJwkQh/QpVZp9sh
DlGiCLWGk2izDKA5dRR/K7GKEmok+JaEbpZIdxJ2LDjVmBMZ1cEH6bggPEKpxSBq
p3Le61ZlHvZRVE7hJPVpR1Xrrgb0qzt8e5qIjJ2f5RsKvJMEWXumxjKe2QB7Cp/N
ylZdCViZaaVbIZcBIJST
-----END CERTIFICATE-----
