Certificate:
    Data:
        Version: 3 (0x2)
        Serial Number: 211549759092 (0x3141592674)
    Signature Algorithm: sha256WithRSAEncryption
        Issuer: CN=CA1_sha256_4096_65537_v3_ca
        Validity
            Not Before: Jul 13 21:20:53 2015 GMT
            Not After : Jul  9 21:20:53 2030 GMT
        Subject: CN=SRK4_sha256_4096_65537_v3_ca
        Subject Public Key Info:
            Public Key Algorithm: rsaEncryption
                Public-Key: (4096 bit)
                Modulus:
                    00:d2:ad:a8:b5:2c:7f:75:c1:2d:6d:23:b7:2b:0a:
                    95:b4:eb:37:81:4b:3b:75:79:be:2f:b3:0e:8f:75:
                    3d:1c:a3:af:ca:9b:43:92:b3:2e:f3:6e:77:f6:d5:
                    05:34:2a:58:cf:af:d7:b8:1a:78:1d:5b:0d:3a:d3:
                    04:fb:42:0a:c8:f8:32:5d:d1:35:e2:9e:84:5c:c8:
                    0f:fe:7d:39:98:87:a9:28:2d:f4:c0:c7:a7:d6:55:
                    89:b4:68:d4:9a:67:2b:8e:16:d7:cc:33:6b:98:57:
                    17:3e:8b:24:3d:e7:f8:a9:99:4f:6a:12:ed:87:94:
                    22:8f:5a:e0:1c:cb:c7:10:6e:b4:80:6c:4c:69:63:
                    b3:a3:d0:f9:50:d5:b6:b9:01:70:36:51:04:5a:65:
                    4a:ee:08:72:71:02:c3:76:01:b7:b7:c6:e2:0c:e7:
                    4e:66:b4:eb:39:33:45:1a:e9:83:54:4d:a0:e5:a0:
                    f8:17:57:f0:2b:e6:11:75:83:91:ed:6f:b8:1f:ed:
                    8f:d5:88:17:0f:10:62:8e:45:77:b9:65:ef:7f:91:
                    27:97:ae:04:80:3d:8d:8e:3d:85:49:b7:a9:a6:94:
                    0a:57:35:e8:2c:06:d4:c8:57:b4:d2:48:f6:1b:8c:
                    93:f0:2e:2f:af:48:26:ac:6f:da:b8:d5:1b:9c:d7:
                    f0:4c:ae:d4:79:48:e9:84:76:97:39:c9:ef:98:14:
                    c4:72:c3:5b:d0:e5:1e:2a:a6:af:c5:2d:99:82:7e:
                    bd:68:17:07:21:d1:14:3e:c3:68:24:7a:0f:94:b0:
                    00:0b:43:ac:88:55:4c:a6:64:b0:f9:fd:5b:5f:54:
                    a9:6a:ae:82:c5:d4:d3:ff:20:9c:12:f5:2a:8b:1d:
                    80:a7:01:a9:16:54:d0:8c:32:b9:3a:1d:1f:c7:72:
                    53:02:4e:b4:22:9e:ce:1d:fe:e7:7b:0f:df:ac:18:
                    f5:0d:10:eb:e1:b3:c9:86:8c:76:14:ea:86:56:9e:
                    47:fe:6e:29:29:23:80:12:b5:ec:06:ce:63:67:80:
                    a6:73:02:a6:26:42:96:d2:25:e7:9a:57:0c:0a:38:
                    ff:0b:81:11:bb:1e:30:9d:d8:6a:39:08:2a:6e:f4:
                    b6:a2:1c:36:81:f3:cb:74:bb:cb:e8:7e:d5:91:c8:
                    1a:18:1f:dd:21:98:63:46:08:10:3b:2d:97:af:67:
                    76:49:23:e4:45:7d:56:ae:cb:b1:14:ea:fe:87:bd:
                    1a:0a:9c:b2:19:8a:7a:93:9d:a6:4c:81:6a:46:54:
                    f2:e2:ea:59:ad:58:5d:fb:62:3d:bc:9c:83:38:4e:
                    f9:c4:5d:f1:0d:7c:83:47:25:41:5b:4f:73:e1:25:
                    fc:9d:c1
                Exponent: 65537 (0x10001)
        X509v3 extensions:
            X509v3 Subject Key Identifier: 
                86:9F:2C:13:44:60:E0:B2:D8:C7:F6:E4:CB:D1:82:EC:BE:49:5F:98
            X509v3 Authority Key Identifier: 
                keyid:81:A1:27:B2:AC:B8:BE:54:90:82:07:C3:18:89:1E:CB:E9:63:87:1B
                DirName:/CN=CA1_sha256_4096_65537_v3_ca
                serial:86:C2:03:1D:A1:43:07:4A

            X509v3 Basic Constraints: critical
                CA:TRUE
            X509v3 Key Usage: 
                Certificate Sign
    Signature Algorithm: sha256WithRSAEncryption
         a3:6f:de:d5:b1:d4:29:c5:76:62:bb:ef:d3:2d:4c:5b:10:9f:
         e6:44:bd:ae:37:23:7b:da:f0:b5:a1:e4:96:31:a1:6e:d4:bc:
         b2:9c:36:50:f7:fd:18:6e:dd:f6:78:b5:51:cc:cf:81:8a:f4:
         b0:81:23:4e:f7:0b:ce:a4:1d:48:c8:05:3f:2a:e8:1a:d7:38:
         eb:cf:7b:1d:5c:7d:90:53:80:27:cc:a0:23:fe:98:fe:7d:47:
         5f:24:a4:22:67:e3:d3:20:93:c1:59:f7:dc:d9:7e:13:91:3c:
         cc:dc:44:58:b3:96:c5:fb:c8:38:55:4c:cf:31:e2:07:cb:f1:
         12:22:3a:d3:fe:08:29:fc:de:78:bb:60:df:1c:65:35:4a:f1:
         8c:67:2a:bc:bf:a5:a4:7d:f7:77:de:d2:9c:eb:d8:09:3b:c6:
         49:c2:c4:aa:3a:02:d0:01:14:8f:83:89:b1:9b:a7:60:29:4c:
         e0:9a:02:fc:2e:07:9d:08:c6:05:cb:c9:65:30:3f:1a:fb:c8:
         58:ff:b1:82:fe:43:1e:39:76:22:df:45:37:f2:a0:1e:fd:fa:
         a6:23:ba:69:d6:3e:53:84:42:14:6d:4a:df:1d:15:50:77:da:
         58:04:04:c1:5d:03:a3:5b:2b:73:5d:6e:2e:9b:2e:7e:fa:c8:
         89:c3:2d:de:ab:dd:53:ec:8f:17:f0:26:ce:da:3c:bf:6f:22:
         a0:e2:2f:3e:18:6b:35:b5:7a:2f:a6:a6:61:1e:6d:76:25:47:
         22:ac:b9:c6:d9:84:89:be:90:97:fc:e6:1b:82:47:b8:bf:84:
         09:35:bc:9d:1b:88:e5:0b:46:e0:2a:31:1b:8b:ee:39:ed:0f:
         2d:15:f2:5e:9a:ed:d1:f8:58:af:4d:9f:f8:51:f9:34:a3:92:
         73:9b:30:c3:3a:d7:ab:73:5f:72:90:23:05:b9:68:38:7c:a2:
         55:d1:63:26:d3:4d:b9:a9:91:06:d4:ed:cc:f2:3a:29:1c:17:
         13:43:03:d5:b9:f6:4a:61:ba:5b:93:3d:d8:a6:6d:4f:09:44:
         a4:41:90:30:53:e2:71:93:73:b3:1b:18:25:6d:dc:a3:5e:67:
         18:34:6d:2f:dc:31:d9:2b:b6:8d:27:23:f4:14:4a:ab:b9:f4:
         06:9f:58:b5:cb:e5:cc:cb:2b:9d:ee:ae:f2:2a:df:bb:0a:03:
         1c:cf:6e:a1:15:89:00:47:c4:e2:b0:1e:35:49:75:13:77:96:
         9c:81:85:fb:ee:18:ef:79:2e:2a:83:14:2b:0a:5e:8b:15:14:
         31:eb:b2:ee:f0:2f:be:33:c6:74:01:1b:5b:00:f5:35:8c:be:
         96:32:de:b5:7d:cd:ee:75
-----BEGIN CERTIFICATE-----
MIIFZTCCA02gAwIBAgIFMUFZJnQwDQYJKoZIhvcNAQELBQAwJjEkMCIGA1UEAxQb
Q0ExX3NoYTI1Nl80MDk2XzY1NTM3X3YzX2NhMB4XDTE1MDcxMzIxMjA1M1oXDTMw
MDcwOTIxMjA1M1owJzElMCMGA1UEAwwcU1JLNF9zaGEyNTZfNDA5Nl82NTUzN192
M19jYTCCAiIwDQYJKoZIhvcNAQEBBQADggIPADCCAgoCggIBANKtqLUsf3XBLW0j
tysKlbTrN4FLO3V5vi+zDo91PRyjr8qbQ5KzLvNud/bVBTQqWM+v17gaeB1bDTrT
BPtCCsj4Ml3RNeKehFzID/59OZiHqSgt9MDHp9ZVibRo1JpnK44W18wza5hXFz6L
JD3n+KmZT2oS7YeUIo9a4BzLxxButIBsTGljs6PQ+VDVtrkBcDZRBFplSu4IcnEC
w3YBt7fG4gznTma06zkzRRrpg1RNoOWg+BdX8CvmEXWDke1vuB/tj9WIFw8QYo5F
d7ll73+RJ5euBIA9jY49hUm3qaaUClc16CwG1MhXtNJI9huMk/AuL69IJqxv2rjV
G5zX8Eyu1HlI6YR2lznJ75gUxHLDW9DlHiqmr8UtmYJ+vWgXByHRFD7DaCR6D5Sw
AAtDrIhVTKZksPn9W19UqWqugsXU0/8gnBL1KosdgKcBqRZU0IwyuTodH8dyUwJO
tCKezh3+53sP36wY9Q0Q6+GzyYaMdhTqhlaeR/5uKSkjgBK17AbOY2eApnMCpiZC
ltIl55pXDAo4/wuBEbseMJ3YajkIKm70tqIcNoHzy3S7y+h+1ZHIGhgf3SGYY0YI
EDstl69ndkkj5EV9Vq7LsRTq/oe9GgqcshmKepOdpkyBakZU8uLqWa1YXftiPbyc
gzhO+cRd8Q18g0clQVtPc+El/J3BAgMBAAGjgZgwgZUwHQYDVR0OBBYEFIafLBNE
YOCy2Mf25MvRguy+SV+YMFYGA1UdIwRPME2AFIGhJ7KsuL5UkIIHwxiJHsvpY4cb
oSqkKDAmMSQwIgYDVQQDFBtDQTFfc2hhMjU2XzQwOTZfNjU1MzdfdjNfY2GCCQCG
wgMdoUMHSjAPBgNVHRMBAf8EBTADAQH/MAsGA1UdDwQEAwICBDANBgkqhkiG9w0B
AQsFAAOCAgEAo2/e1bHUKcV2Yrvv0y1MWxCf5kS9rjcje9rwtaHkljGhbtS8spw2
UPf9GG7d9ni1UczPgYr0sIEjTvcLzqQdSMgFPyroGtc46897HVx9kFOAJ8ygI/6Y
/n1HXySkImfj0yCTwVn33Nl+E5E8zNxEWLOWxfvIOFVMzzHiB8vxEiI60/4IKfze
eLtg3xxlNUrxjGcqvL+lpH33d97SnOvYCTvGScLEqjoC0AEUj4OJsZunYClM4JoC
/C4HnQjGBcvJZTA/GvvIWP+xgv5DHjl2It9FN/KgHv36piO6adY+U4RCFG1K3x0V
UHfaWAQEwV0Do1src11uLpsufvrIicMt3qvdU+yPF/Amzto8v28ioOIvPhhrNbV6
L6amYR5tdiVHIqy5xtmEib6Ql/zmG4JHuL+ECTW8nRuI5QtG4CoxG4vuOe0PLRXy
Xprt0fhYr02f+FH5NKOSc5swwzrXq3NfcpAjBbloOHyiVdFjJtNNuamRBtTtzPI6
KRwXE0MD1bn2SmG6W5M92KZtTwlEpEGQMFPicZNzsxsYJW3co15nGDRtL9wx2Su2
jScj9BRKq7n0Bp9YtcvlzMsrne6u8irfuwoDHM9uoRWJAEfE4rAeNUl1E3eWnIGF
++4Y73kuKoMUKwpeixUUMeuy7vAvvjPGdAEbWwD1NYy+ljLetX3N7nU=
-----END CERTIFICATE-----
