Certificate:
    Data:
        Version: 3 (0x2)
        Serial Number: 211549759083 (0x314159266b)
    Signature Algorithm: sha256WithRSAEncryption
        Issuer: CN=CA1_sha256_4096_65537_v3_ca
        Validity
            Not Before: Jul 13 21:19:03 2015 GMT
            Not After : Jul  9 21:19:03 2030 GMT
        Subject: CN=SRK1_sha256_4096_65537_v3_ca
        Subject Public Key Info:
            Public Key Algorithm: rsaEncryption
                Public-Key: (4096 bit)
                Modulus:
                    00:bb:68:d6:ad:e0:a6:fc:d0:19:7c:6f:25:71:de:
                    57:7b:61:7d:3e:8c:7f:38:5c:7b:83:1a:c2:69:ad:
                    7f:75:8e:1b:3d:b4:14:80:28:45:cd:e0:82:5c:ba:
                    32:ff:22:21:b5:6b:e9:0c:45:1d:f0:c3:4f:b4:1a:
                    26:f2:a9:c3:e4:50:25:a8:6d:76:5e:0d:7c:df:ce:
                    ff:26:1a:32:35:40:c5:b8:c8:d2:2e:5f:66:3c:a7:
                    2b:4b:db:d6:6c:3e:91:2e:68:fb:ad:7f:37:76:80:
                    86:92:ec:b6:2e:87:ba:2e:6d:ae:5b:c3:26:39:82:
                    e0:3c:8e:f3:5b:e4:ad:29:85:69:ea:d9:0b:5e:93:
                    90:72:3e:e9:82:85:27:98:4c:2c:68:e2:85:54:54:
                    63:6b:41:65:5e:46:d4:c7:7a:2e:b1:f5:6a:39:23:
                    70:c1:53:a2:51:32:83:66:c3:9a:ce:be:b3:32:9f:
                    51:df:d1:a1:43:a6:83:d8:a3:87:8d:eb:7e:4d:40:
                    6e:61:47:57:24:8f:8d:06:95:2b:cd:82:6b:aa:53:
                    4b:6d:e7:79:bc:56:ee:1d:e1:fa:7b:bc:b9:3f:85:
                    86:a4:71:36:f5:28:df:3c:38:86:1a:3e:92:db:b4:
                    0a:bb:fd:9e:43:5a:d2:05:37:e0:36:65:8d:10:75:
                    6b:b7:12:93:1b:20:79:b3:bb:8e:54:31:f8:d8:01:
                    87:0d:e5:78:69:36:3d:0f:6c:29:fe:e5:11:09:2c:
                    50:8e:e3:e6:6e:85:a1:67:e1:1f:be:ca:3c:0b:d4:
                    3c:67:a5:1b:64:99:75:02:99:4f:00:d4:a0:79:59:
                    5b:e4:a5:6f:b3:90:e8:28:04:d3:9d:b6:71:20:86:
                    1d:ef:d6:c5:24:1c:e0:d4:4b:52:b0:0e:c9:c2:e8:
                    43:13:85:cf:ed:77:8d:7d:08:f4:11:51:c0:28:23:
                    2a:33:6f:a3:01:38:e0:a6:ad:3d:d2:2d:57:9e:3c:
                    f7:fe:39:28:6e:c4:37:04:2f:dc:87:7a:10:8b:58:
                    fc:fb:6f:6f:b1:97:7b:59:7a:3c:25:9d:af:e8:64:
                    b7:12:e8:bf:3c:bd:46:c5:ed:e3:3d:a8:39:cd:04:
                    ef:cd:ba:b8:57:b7:69:cc:33:ab:b5:7d:37:4d:58:
                    eb:fc:b8:6a:93:3f:dc:11:a6:e2:5b:45:b8:20:a4:
                    e3:16:ba:90:19:34:34:c5:31:43:ee:cd:7d:d2:94:
                    33:c9:89:69:37:fb:17:d7:f8:e1:3f:fc:b1:71:7b:
                    33:dd:6b:8b:4f:7d:58:85:00:15:c6:ed:95:7d:4c:
                    e7:93:0a:67:94:7e:72:8e:81:26:32:54:42:ad:62:
                    3b:9a:bf
                Exponent: 65537 (0x10001)
        X509v3 extensions:
            X509v3 Subject Key Identifier: 
                7C:C8:40:4B:87:97:21:1A:87:43:15:11:FF:86:9F:73:31:A8:92:3D
            X509v3 Authority Key Identifier: 
                keyid:81:A1:27:B2:AC:B8:BE:54:90:82:07:C3:18:89:1E:CB:E9:63:87:1B
                DirName:/CN=CA1_sha256_4096_65537_v3_ca
                serial:86:C2:03:1D:A1:43:07:4A

            X509v3 Basic Constraints: critical
                CA:TRUE
            X509v3 Key Usage: 
                Certificate Sign
    Signature Algorithm: sha256WithRSAEncryption
         8b:fc:55:90:80:e7:85:4a:37:82:a1:c0:5c:14:1b:1e:f8:e3:
         67:5f:fc:a6:97:b7:c3:ee:6a:29:de:93:f1:86:bd:23:5f:82:
         1a:3a:46:88:fc:64:22:80:28:18:d8:57:ce:5c:ec:75:12:ce:
         e4:1e:f6:c5:23:ec:f8:bc:b4:d9:61:95:ae:0a:36:64:25:67:
         dc:6a:ff:53:aa:92:63:e5:15:b8:59:0b:83:83:cb:7d:1b:c3:
         43:a4:74:06:2a:31:e6:03:29:77:53:ba:d0:cb:1d:5e:ae:28:
         4f:7b:e3:5a:8f:a2:41:37:46:8c:7b:52:69:cf:a1:da:8a:61:
         67:6d:3f:10:75:e2:ff:92:36:8b:e1:a9:82:e1:cd:b3:7b:92:
         ac:ff:cf:f3:4d:86:a7:76:fa:f0:f3:74:79:ec:26:0a:89:4c:
         e6:d4:76:e6:71:b4:0b:be:c3:16:4a:b8:b0:e2:d0:85:82:49:
         54:b1:55:dd:79:c8:d8:73:2e:07:d0:ab:e0:d7:07:e0:42:a5:
         31:0a:c1:05:04:d3:8d:d3:35:9c:9b:0d:98:de:ea:6e:03:38:
         bd:ea:13:e1:b9:dd:b8:e5:0c:dc:ff:b7:0e:a8:69:1a:e7:d2:
         fa:30:29:8d:ee:e4:51:1e:81:fc:1c:a2:ea:0d:be:3f:f5:0d:
         97:f8:a8:32:6c:2b:14:34:e7:81:a3:a6:77:c1:a8:72:f5:be:
         d1:12:fb:ab:db:3e:38:bb:7f:e6:e1:f3:01:0f:8b:8e:0a:47:
         db:aa:ea:60:5b:3e:3e:e1:94:71:3b:6e:ee:0e:ee:1b:86:ac:
         06:e2:05:97:fc:49:ef:f3:2d:cb:e8:6a:16:63:53:26:89:b4:
         f4:df:6e:49:ef:e1:81:c2:fa:75:10:ab:65:9e:7c:39:0a:88:
         c5:46:2e:fc:cd:60:ef:c8:db:ea:87:d7:c1:f4:91:a6:14:ad:
         27:b3:97:29:6c:df:72:51:1e:08:06:3f:4b:4c:3f:03:6f:b7:
         10:92:af:ef:74:d5:6f:d1:e9:7d:31:25:a2:18:86:1d:e2:ea:
         f1:a7:7f:7e:95:f6:cd:14:e3:2d:e6:40:b9:df:84:ce:e7:4c:
         9a:1d:d5:c4:54:b5:ce:18:dc:05:38:64:3e:51:01:88:2b:bd:
         80:9d:37:bd:dd:77:f7:b7:48:29:2d:48:45:73:19:ab:87:b0:
         31:72:47:b1:57:69:fa:fd:c4:95:0f:f1:76:0e:fd:cc:7c:96:
         88:12:b1:e5:f2:85:48:4c:5e:7e:43:42:16:df:af:2c:ff:96:
         d1:45:0d:4f:56:6e:62:a2:5c:1f:30:69:f8:79:d8:2e:74:33:
         9d:07:e1:d7:e3:dd:2c:7e
-----BEGIN CERTIFICATE-----
MIIFZTCCA02gAwIBAgIFMUFZJmswDQYJKoZIhvcNAQELBQAwJjEkMCIGA1UEAxQb
Q0ExX3NoYTI1Nl80MDk2XzY1NTM3X3YzX2NhMB4XDTE1MDcxMzIxMTkwM1oXDTMw
MDcwOTIxMTkwM1owJzElMCMGA1UEAwwcU1JLMV9zaGEyNTZfNDA5Nl82NTUzN192
M19jYTCCAiIwDQYJKoZIhvcNAQEBBQADggIPADCCAgoCggIBALto1q3gpvzQGXxv
JXHeV3thfT6Mfzhce4Mawmmtf3WOGz20FIAoRc3ggly6Mv8iIbVr6QxFHfDDT7Qa
JvKpw+RQJahtdl4NfN/O/yYaMjVAxbjI0i5fZjynK0vb1mw+kS5o+61/N3aAhpLs
ti6Hui5trlvDJjmC4DyO81vkrSmFaerZC16TkHI+6YKFJ5hMLGjihVRUY2tBZV5G
1Md6LrH1ajkjcMFTolEyg2bDms6+szKfUd/RoUOmg9ijh43rfk1AbmFHVySPjQaV
K82Ca6pTS23nebxW7h3h+nu8uT+FhqRxNvUo3zw4hho+ktu0Crv9nkNa0gU34DZl
jRB1a7cSkxsgebO7jlQx+NgBhw3leGk2PQ9sKf7lEQksUI7j5m6FoWfhH77KPAvU
PGelG2SZdQKZTwDUoHlZW+Slb7OQ6CgE0522cSCGHe/WxSQc4NRLUrAOycLoQxOF
z+13jX0I9BFRwCgjKjNvowE44KatPdItV5489/45KG7ENwQv3Id6EItY/Ptvb7GX
e1l6PCWdr+hktxLovzy9RsXt4z2oOc0E7826uFe3acwzq7V9N01Y6/y4apM/3BGm
4ltFuCCk4xa6kBk0NMUxQ+7NfdKUM8mJaTf7F9f44T/8sXF7M91ri099WIUAFcbt
lX1M55MKZ5R+co6BJjJUQq1iO5q/AgMBAAGjgZgwgZUwHQYDVR0OBBYEFHzIQEuH
lyEah0MVEf+Gn3MxqJI9MFYGA1UdIwRPME2AFIGhJ7KsuL5UkIIHwxiJHsvpY4cb
oSqkKDAmMSQwIgYDVQQDFBtDQTFfc2hhMjU2XzQwOTZfNjU1MzdfdjNfY2GCCQCG
wgMdoUMHSjAPBgNVHRMBAf8EBTADAQH/MAsGA1UdDwQEAwICBDANBgkqhkiG9w0B
AQsFAAOCAgEAi/xVkIDnhUo3gqHAXBQbHvjjZ1/8ppe3w+5qKd6T8Ya9I1+CGjpG
iPxkIoAoGNhXzlzsdRLO5B72xSPs+Ly02WGVrgo2ZCVn3Gr/U6qSY+UVuFkLg4PL
fRvDQ6R0Biox5gMpd1O60MsdXq4oT3vjWo+iQTdGjHtSac+h2ophZ20/EHXi/5I2
i+GpguHNs3uSrP/P802Gp3b68PN0eewmColM5tR25nG0C77DFkq4sOLQhYJJVLFV
3XnI2HMuB9Cr4NcH4EKlMQrBBQTTjdM1nJsNmN7qbgM4veoT4bnduOUM3P+3Dqhp
GufS+jApje7kUR6B/Byi6g2+P/UNl/ioMmwrFDTngaOmd8GocvW+0RL7q9s+OLt/
5uHzAQ+LjgpH26rqYFs+PuGUcTtu7g7uG4asBuIFl/xJ7/Mty+hqFmNTJom09N9u
Se/hgcL6dRCrZZ58OQqIxUYu/M1g78jb6ofXwfSRphStJ7OXKWzfclEeCAY/S0w/
A2+3EJKv73TVb9HpfTElohiGHeLq8ad/fpX2zRTjLeZAud+EzudMmh3VxFS1zhjc
BThkPlEBiCu9gJ03vd1397dIKS1IRXMZq4ewMXJHsVdp+v3ElQ/xdg79zHyWiBKx
5fKFSExefkNCFt+vLP+W0UUNT1ZuYqJcHzBp+HnYLnQznQfh1+PdLH4=
-----END CERTIFICATE-----
