Certificate:
    Data:
        Version: 3 (0x2)
        Serial Number: 211549759086 (0x314159266e)
    Signature Algorithm: sha256WithRSAEncryption
        Issuer: CN=CA1_sha256_4096_65537_v3_ca
        Validity
            Not Before: Jul 13 21:19:42 2015 GMT
            Not After : Jul  9 21:19:42 2030 GMT
        Subject: CN=SRK2_sha256_4096_65537_v3_ca
        Subject Public Key Info:
            Public Key Algorithm: rsaEncryption
                Public-Key: (4096 bit)
                Modulus:
                    00:b1:97:05:fb:49:3c:0a:f9:fb:59:00:40:77:63:
                    a6:b9:55:88:01:61:e4:c0:02:91:88:f1:d5:09:c7:
                    41:c7:36:46:74:b3:4f:40:49:ab:ad:28:1f:ce:30:
                    47:13:9a:b5:39:1f:4b:70:be:fc:26:5a:fa:4f:35:
                    dd:4d:bf:1a:12:6a:43:ed:c2:37:73:d1:2e:2c:44:
                    2a:82:ee:3c:d3:a7:47:22:20:26:5e:0f:04:a2:84:
                    5b:1d:cd:5b:d4:a5:5e:be:2d:d3:c9:88:fa:db:bd:
                    3f:35:10:ae:50:1c:e9:72:2c:6e:c7:ed:a2:db:da:
                    8f:0d:d2:42:53:05:84:bf:41:e8:f9:82:77:ae:a7:
                    51:88:91:91:73:70:d6:92:8a:a2:c7:3f:07:25:65:
                    81:10:95:be:51:9c:80:20:50:c5:1f:d6:64:be:9c:
                    d3:64:2d:8d:55:3c:5f:11:65:de:51:fe:d6:1b:62:
                    7d:bd:06:11:0e:7d:a9:ac:d0:c5:98:f8:c8:3d:90:
                    12:53:60:74:24:34:18:bd:b2:8b:95:b0:2b:fc:29:
                    59:53:88:aa:88:2b:52:6c:27:21:01:94:f8:51:25:
                    e6:dc:77:4d:83:b8:67:99:dc:30:41:1f:c9:cb:d0:
                    ce:c9:b6:57:b7:d7:3f:4a:6e:ab:8e:2a:9c:26:49:
                    5c:5f:2b:b5:62:20:ba:1b:8b:ae:67:e8:06:89:52:
                    ba:9d:18:d7:23:df:d1:e4:b0:a4:47:4e:13:23:64:
                    e7:c0:42:69:38:b3:c0:b7:da:d4:d2:4d:35:b0:2a:
                    53:df:74:eb:49:4d:f4:c9:a0:e9:03:cd:5c:cb:91:
                    bb:e1:24:14:2e:d9:d3:f4:2e:77:52:42:6e:9e:99:
                    ce:2b:7b:cc:ee:3a:37:44:d2:4a:28:06:1c:14:3f:
                    98:d3:86:bd:3f:4b:0a:36:e9:0f:58:9a:84:8f:6f:
                    bb:85:71:39:dd:b5:f2:95:ae:9c:21:52:65:f6:cf:
                    a7:e1:2b:0d:4d:80:65:a7:c4:3e:3f:3b:f4:14:0f:
                    b5:74:5a:34:ca:fc:a5:27:af:00:f0:f1:cf:81:7b:
                    43:e7:96:e1:ee:b4:1a:b0:16:73:ce:cc:84:23:02:
                    a8:76:d4:47:e5:15:1f:f2:13:63:36:63:87:64:c4:
                    7e:b2:cf:33:22:94:05:af:e2:93:58:f2:a5:ef:1f:
                    ae:f4:3d:17:f6:ec:77:d4:75:a1:26:ea:f4:70:8e:
                    61:4c:e9:cd:89:d1:8e:39:15:6a:5e:45:9a:82:be:
                    07:5e:d2:fb:dc:a9:fa:2a:4f:20:b0:25:c3:cb:88:
                    8c:6c:0e:52:79:f5:34:e1:b1:15:28:ac:38:88:74:
                    b6:e1:5f
                Exponent: 65537 (0x10001)
        X509v3 extensions:
            X509v3 Subject Key Identifier: 
                16:1E:91:F9:A0:81:DF:F8:09:5D:D0:F7:69:D4:AE:B8:07:CB:20:B6
            X509v3 Authority Key Identifier: 
                keyid:81:A1:27:B2:AC:B8:BE:54:90:82:07:C3:18:89:1E:CB:E9:63:87:1B
                DirName:/CN=CA1_sha256_4096_65537_v3_ca
                serial:86:C2:03:1D:A1:43:07:4A

            X509v3 Basic Constraints: critical
                CA:TRUE
            X509v3 Key Usage: 
                Certificate Sign
    Signature Algorithm: sha256WithRSAEncryption
         48:1a:ae:69:18:e9:3b:76:71:27:87:bc:da:44:0f:70:53:6c:
         ea:9c:74:84:b3:54:ed:3e:79:58:8b:83:da:e2:91:0b:93:17:
         0c:89:26:8d:40:25:73:0d:c0:75:7b:08:ea:a7:44:5a:df:10:
         15:09:78:04:c6:e2:66:5d:5c:c4:cb:6b:da:ee:f2:21:bc:06:
         5d:49:73:51:dc:30:ca:00:12:08:a0:2c:4b:25:90:5e:7c:ba:
         e8:6b:27:c0:10:03:9e:7c:51:57:41:f1:11:07:3f:54:f4:d7:
         67:8e:92:bd:5d:7c:69:ee:50:42:ad:20:9c:03:72:78:bb:87:
         30:91:94:8f:4b:d6:13:12:b5:c6:ca:ba:4c:0a:cf:a4:d6:da:
         ce:22:56:24:44:99:47:96:50:0a:12:4a:af:83:2f:41:53:68:
         33:70:b4:91:27:b4:1e:cf:75:74:8f:95:92:9b:02:21:13:74:
         df:8c:cd:64:28:8c:01:7b:20:cc:67:18:f4:5d:f1:18:2d:88:
         c0:af:e1:b7:17:ba:44:b0:71:24:88:13:c3:13:f6:02:d4:93:
         05:b9:02:ce:2b:9a:72:8d:ab:58:a5:f6:ad:ca:da:5c:f2:61:
         f3:ac:3c:56:ae:bd:d4:34:cf:01:f0:ca:5d:b1:89:e1:a1:5f:
         82:48:ee:66:f5:ea:5d:f1:30:17:9b:36:04:c3:d7:36:ed:1f:
         c6:e6:6f:e6:9f:31:ea:7a:b9:62:d4:60:ad:b0:29:ba:49:0a:
         74:7c:2f:eb:a9:62:a3:60:3d:30:aa:c1:03:e6:69:9c:63:52:
         00:11:d1:ee:97:0a:83:d5:fa:0d:a2:0c:aa:f7:da:f5:34:05:
         57:22:e1:f5:fc:31:b2:25:1c:bc:99:77:09:0c:7e:23:9e:e2:
         22:4b:76:f2:64:46:66:00:2b:c6:40:bb:ed:f9:79:7d:f5:68:
         04:6e:64:dd:97:ea:46:74:6c:fd:69:8c:10:62:6a:c0:d5:92:
         89:81:26:24:5b:01:49:91:d1:37:7e:94:32:59:50:0d:99:95:
         32:7b:83:dc:5b:3c:7b:b7:34:9f:b6:a6:63:be:10:15:b3:13:
         64:37:3f:30:98:9f:0c:b7:5b:79:c0:c2:2f:ef:43:ea:49:7a:
         a5:51:58:6f:5e:10:37:48:a1:e7:31:94:b1:69:49:5f:66:44:
         45:12:a6:6f:56:82:f6:83:04:ac:c4:10:c3:01:ff:a9:42:22:
         35:ae:f8:f7:59:5c:4d:ea:61:15:ae:e1:6d:60:2b:2b:e3:20:
         22:c1:9e:0a:e4:b8:f1:8f:0a:6b:4a:b9:81:e8:14:dd:6b:46:
         29:b6:8a:37:c1:11:7b:a1
-----BEGIN CERTIFICATE-----
MIIFZTCCA02gAwIBAgIFMUFZJm4wDQYJKoZIhvcNAQELBQAwJjEkMCIGA1UEAxQb
Q0ExX3NoYTI1Nl80MDk2XzY1NTM3X3YzX2NhMB4XDTE1MDcxMzIxMTk0MloXDTMw
MDcwOTIxMTk0MlowJzElMCMGA1UEAwwcU1JLMl9zaGEyNTZfNDA5Nl82NTUzN192
M19jYTCCAiIwDQYJKoZIhvcNAQEBBQADggIPADCCAgoCggIBALGXBftJPAr5+1kA
QHdjprlViAFh5MACkYjx1QnHQcc2RnSzT0BJq60oH84wRxOatTkfS3C+/CZa+k81
3U2/GhJqQ+3CN3PRLixEKoLuPNOnRyIgJl4PBKKEWx3NW9SlXr4t08mI+tu9PzUQ
rlAc6XIsbsftotvajw3SQlMFhL9B6PmCd66nUYiRkXNw1pKKosc/ByVlgRCVvlGc
gCBQxR/WZL6c02QtjVU8XxFl3lH+1htifb0GEQ59qazQxZj4yD2QElNgdCQ0GL2y
i5WwK/wpWVOIqogrUmwnIQGU+FEl5tx3TYO4Z5ncMEEfycvQzsm2V7fXP0puq44q
nCZJXF8rtWIguhuLrmfoBolSup0Y1yPf0eSwpEdOEyNk58BCaTizwLfa1NJNNbAq
U99060lN9Mmg6QPNXMuRu+EkFC7Z0/Qud1JCbp6Zzit7zO46N0TSSigGHBQ/mNOG
vT9LCjbpD1iahI9vu4VxOd218pWunCFSZfbPp+ErDU2AZafEPj879BQPtXRaNMr8
pSevAPDxz4F7Q+eW4e60GrAWc87MhCMCqHbUR+UVH/ITYzZjh2TEfrLPMyKUBa/i
k1jype8frvQ9F/bsd9R1oSbq9HCOYUzpzYnRjjkVal5FmoK+B17S+9yp+ipPILAl
w8uIjGwOUnn1NOGxFSisOIh0tuFfAgMBAAGjgZgwgZUwHQYDVR0OBBYEFBYekfmg
gd/4CV3Q92nUrrgHyyC2MFYGA1UdIwRPME2AFIGhJ7KsuL5UkIIHwxiJHsvpY4cb
oSqkKDAmMSQwIgYDVQQDFBtDQTFfc2hhMjU2XzQwOTZfNjU1MzdfdjNfY2GCCQCG
wgMdoUMHSjAPBgNVHRMBAf8EBTADAQH/MAsGA1UdDwQEAwICBDANBgkqhkiG9w0B
AQsFAAOCAgEASBquaRjpO3ZxJ4e82kQPcFNs6px0hLNU7T55WIuD2uKRC5MXDIkm
jUAlcw3AdXsI6qdEWt8QFQl4BMbiZl1cxMtr2u7yIbwGXUlzUdwwygASCKAsSyWQ
Xny66GsnwBADnnxRV0HxEQc/VPTXZ46SvV18ae5QQq0gnANyeLuHMJGUj0vWExK1
xsq6TArPpNbaziJWJESZR5ZQChJKr4MvQVNoM3C0kSe0Hs91dI+VkpsCIRN034zN
ZCiMAXsgzGcY9F3xGC2IwK/htxe6RLBxJIgTwxP2AtSTBbkCziuaco2rWKX2rcra
XPJh86w8Vq691DTPAfDKXbGJ4aFfgkjuZvXqXfEwF5s2BMPXNu0fxuZv5p8x6nq5
YtRgrbApukkKdHwv66lio2A9MKrBA+ZpnGNSABHR7pcKg9X6DaIMqvfa9TQFVyLh
9fwxsiUcvJl3CQx+I57iIkt28mRGZgArxkC77fl5ffVoBG5k3ZfqRnRs/WmMEGJq
wNWSiYEmJFsBSZHRN36UMllQDZmVMnuD3Fs8e7c0n7amY74QFbMTZDc/MJifDLdb
ecDCL+9D6kl6pVFYb14QN0ih5zGUsWlJX2ZERRKmb1aC9oMErMQQwwH/qUIiNa74
91lcTephFa7hbWArK+MgIsGeCuS48Y8Ka0q5gegU3WtGKbaKN8ERe6E=
-----END CERTIFICATE-----
