Certificate:
    Data:
        Version: 3 (0x2)
        Serial Number: 211549759089 (0x3141592671)
    Signature Algorithm: sha256WithRSAEncryption
        Issuer: CN=CA1_sha256_4096_65537_v3_ca
        Validity
            Not Before: Jul 13 21:20:23 2015 GMT
            Not After : Jul  9 21:20:23 2030 GMT
        Subject: CN=SRK3_sha256_4096_65537_v3_ca
        Subject Public Key Info:
            Public Key Algorithm: rsaEncryption
                Public-Key: (4096 bit)
                Modulus:
                    00:c7:13:33:2a:2d:66:e0:fc:0b:3f:86:88:45:cb:
                    96:35:87:2b:2a:6a:1e:fd:75:7c:54:ec:34:3c:c0:
                    e0:2e:72:e3:04:dd:e2:f3:b4:3d:35:e6:9e:49:ad:
                    b1:4d:ff:da:a9:00:29:51:19:1a:49:f2:1f:75:df:
                    97:d9:9d:62:17:cc:e1:63:40:bb:eb:11:81:23:5c:
                    ae:28:f7:d2:dc:93:dd:01:c5:2c:e1:3f:91:60:0c:
                    eb:f1:c3:d6:c9:52:de:84:21:e6:80:b1:eb:82:03:
                    cc:60:57:3c:1f:f4:03:26:f6:31:bd:ee:a3:2b:f9:
                    07:78:40:6e:60:eb:9b:32:87:d3:f4:0d:79:f4:15:
                    af:34:17:32:84:95:14:54:59:02:3b:09:3e:10:75:
                    86:46:d9:65:c6:63:b6:b4:04:0a:bb:fe:dc:e7:82:
                    7f:d8:a5:b3:6e:05:6a:77:47:7c:07:84:88:3e:89:
                    12:67:69:cc:12:f1:39:dd:c3:09:96:1e:3c:2a:c1:
                    1f:8f:3c:33:97:bb:d9:cb:3a:dd:90:a3:6d:aa:78:
                    8e:01:3e:f7:76:b8:c3:f9:94:44:f8:a3:56:35:02:
                    40:01:14:b7:2b:d7:f1:38:40:f7:67:15:08:36:b6:
                    83:67:80:8d:48:4d:2c:33:7f:b9:d8:b1:04:48:97:
                    b8:0c:f9:25:4f:03:a1:95:8e:a8:56:a9:6b:82:4f:
                    da:5d:ec:46:ff:6a:66:80:da:85:57:2d:c1:c4:79:
                    c3:d4:8f:8c:74:3a:fc:3f:1c:04:61:8e:b4:ab:bf:
                    d9:86:8d:fa:3d:bd:08:6f:f4:10:8b:fa:60:f7:86:
                    0d:b9:1c:0c:23:55:12:d7:97:35:bb:fb:74:6b:a2:
                    51:76:90:d1:68:f7:d9:c1:d4:6d:1b:c3:3f:87:81:
                    0b:93:64:16:89:5d:95:ce:c1:fd:9c:7e:d1:b8:1a:
                    ab:9b:fe:b0:2e:d2:13:fb:44:84:3b:b2:d8:14:0a:
                    c4:ae:77:6a:e7:1c:6a:21:6f:86:7b:f2:4a:bf:73:
                    bc:53:db:de:77:c6:58:04:99:0e:5f:12:04:a5:64:
                    63:8c:1f:18:ed:94:90:19:cc:3e:ae:cd:fa:7a:b5:
                    68:5f:0f:e4:ad:63:b7:37:a2:24:7a:00:d2:45:3d:
                    bc:b1:db:ba:10:52:83:55:f5:04:f4:f2:50:10:8e:
                    6c:99:3b:a8:38:92:a2:d0:65:83:2f:bf:98:5a:d2:
                    96:33:21:d6:34:b4:84:45:a7:2c:0f:ba:35:1c:83:
                    e6:f3:18:a4:0b:ce:97:01:87:0e:a7:c9:a2:de:ae:
                    1a:1f:71:a6:4e:95:f0:02:d5:e2:28:94:4f:86:2d:
                    8b:89:47
                Exponent: 65537 (0x10001)
        X509v3 extensions:
            X509v3 Subject Key Identifier: 
                AB:DC:18:84:CE:8C:12:82:05:78:62:5E:8A:11:4E:BE:F3:B1:36:F5
            X509v3 Authority Key Identifier: 
                keyid:81:A1:27:B2:AC:B8:BE:54:90:82:07:C3:18:89:1E:CB:E9:63:87:1B
                DirName:/CN=CA1_sha256_4096_65537_v3_ca
                serial:86:C2:03:1D:A1:43:07:4A

            X509v3 Basic Constraints: critical
                CA:TRUE
            X509v3 Key Usage: 
                Certificate Sign
    Signature Algorithm: sha256WithRSAEncryption
         33:d0:63:66:ce:a7:fa:c8:2b:13:8a:38:fd:6d:a2:04:d6:45:
         ee:6f:68:b4:40:e1:52:d4:b8:53:08:15:85:1b:2d:ac:f6:0c:
         38:66:b3:d9:a5:21:c5:65:c1:40:79:8a:f8:19:29:ec:5d:c5:
         21:97:7d:1f:bf:1a:f0:5a:6b:ce:42:a3:75:e3:28:d1:84:1d:
         9a:f0:3c:ad:29:69:11:d3:9f:9e:8a:b0:80:1b:57:81:20:0e:
         9f:1d:fa:33:68:97:f2:a6:51:b7:b1:e1:aa:44:d3:ac:c1:f7:
         34:1e:95:b0:38:98:b0:02:a6:d0:1b:d1:36:4b:40:3e:01:d8:
         c3:45:a3:4e:41:fa:d5:1c:5e:dc:16:f4:56:74:16:cb:80:d3:
         a9:b5:fe:ae:8c:d8:27:36:fd:01:ef:fa:6e:53:c5:e0:1f:39:
         80:c1:f0:39:74:36:6f:db:1e:d8:51:3c:3a:95:3c:47:63:29:
         56:87:bb:78:74:7c:14:d2:92:13:05:c7:b8:8a:7f:25:a2:db:
         8b:12:b4:1f:9a:5e:43:b8:b9:54:64:1b:a3:12:ef:5d:21:9e:
         db:12:c5:53:17:71:bb:62:57:10:cf:72:a4:96:db:b9:d0:11:
         b3:b9:45:13:d0:6d:39:9f:52:39:c4:21:cb:a5:d5:a2:73:65:
         97:72:e3:d8:e8:13:c4:2e:0d:53:ca:64:94:52:ed:67:f9:bc:
         44:29:45:f0:3f:36:64:90:74:4b:05:20:57:54:5c:53:57:a2:
         ab:af:30:1d:27:52:45:c0:58:3a:0c:5d:37:7d:8e:ac:c5:df:
         a4:5c:0b:cf:12:b5:7b:90:ec:7d:15:ab:2a:68:5d:cb:92:a1:
         61:81:2e:84:6f:7f:40:ec:b1:12:6d:70:ae:09:76:50:1e:cc:
         67:df:8a:d1:55:29:16:1d:f9:38:8e:c1:b6:a2:b1:8c:c8:55:
         4c:b6:f9:90:fc:75:6b:7d:0f:a3:2b:bc:32:2f:0a:94:e2:92:
         6d:9c:e7:de:0d:8a:40:c3:ad:6e:2c:16:fe:33:5f:35:06:bd:
         16:56:96:e9:d6:b8:45:26:41:47:1b:92:b2:8a:32:8e:2f:4b:
         fc:4c:08:7f:25:b3:15:dc:34:a1:14:7e:15:54:4b:d2:97:2e:
         e6:a1:5f:5d:fd:72:ef:2d:9f:cd:74:41:31:35:34:a5:5c:c9:
         d8:d7:47:1e:4e:02:fb:28:90:20:5f:b4:c4:d6:05:60:40:fb:
         23:63:f1:f2:26:88:5f:3c:fc:18:7b:c9:61:83:79:a4:31:84:
         dc:13:a4:99:f3:60:6d:c8:4a:b0:b1:de:18:c4:04:cf:8a:82:
         94:a7:84:6b:26:05:11:c5
-----BEGIN CERTIFICATE-----
MIIFZTCCA02gAwIBAgIFMUFZJnEwDQYJKoZIhvcNAQELBQAwJjEkMCIGA1UEAxQb
Q0ExX3NoYTI1Nl80MDk2XzY1NTM3X3YzX2NhMB4XDTE1MDcxMzIxMjAyM1oXDTMw
MDcwOTIxMjAyM1owJzElMCMGA1UEAwwcU1JLM19zaGEyNTZfNDA5Nl82NTUzN192
M19jYTCCAiIwDQYJKoZIhvcNAQEBBQADggIPADCCAgoCggIBAMcTMyotZuD8Cz+G
iEXLljWHKypqHv11fFTsNDzA4C5y4wTd4vO0PTXmnkmtsU3/2qkAKVEZGknyH3Xf
l9mdYhfM4WNAu+sRgSNcrij30tyT3QHFLOE/kWAM6/HD1slS3oQh5oCx64IDzGBX
PB/0Ayb2Mb3uoyv5B3hAbmDrmzKH0/QNefQVrzQXMoSVFFRZAjsJPhB1hkbZZcZj
trQECrv+3OeCf9ils24FandHfAeEiD6JEmdpzBLxOd3DCZYePCrBH488M5e72cs6
3ZCjbap4jgE+93a4w/mURPijVjUCQAEUtyvX8ThA92cVCDa2g2eAjUhNLDN/udix
BEiXuAz5JU8DoZWOqFapa4JP2l3sRv9qZoDahVctwcR5w9SPjHQ6/D8cBGGOtKu/
2YaN+j29CG/0EIv6YPeGDbkcDCNVEteXNbv7dGuiUXaQ0Wj32cHUbRvDP4eBC5Nk
Foldlc7B/Zx+0bgaq5v+sC7SE/tEhDuy2BQKxK53auccaiFvhnvySr9zvFPb3nfG
WASZDl8SBKVkY4wfGO2UkBnMPq7N+nq1aF8P5K1jtzeiJHoA0kU9vLHbuhBSg1X1
BPTyUBCObJk7qDiSotBlgy+/mFrSljMh1jS0hEWnLA+6NRyD5vMYpAvOlwGHDqfJ
ot6uGh9xpk6V8ALV4iiUT4Yti4lHAgMBAAGjgZgwgZUwHQYDVR0OBBYEFKvcGITO
jBKCBXhiXooRTr7zsTb1MFYGA1UdIwRPME2AFIGhJ7KsuL5UkIIHwxiJHsvpY4cb
oSqkKDAmMSQwIgYDVQQDFBtDQTFfc2hhMjU2XzQwOTZfNjU1MzdfdjNfY2GCCQCG
wgMdoUMHSjAPBgNVHRMBAf8EBTADAQH/MAsGA1UdDwQEAwICBDANBgkqhkiG9w0B
AQsFAAOCAgEAM9BjZs6n+sgrE4o4/W2iBNZF7m9otEDhUtS4UwgVhRstrPYMOGaz
2aUhxWXBQHmK+Bkp7F3FIZd9H78a8FprzkKjdeMo0YQdmvA8rSlpEdOfnoqwgBtX
gSAOnx36M2iX8qZRt7HhqkTTrMH3NB6VsDiYsAKm0BvRNktAPgHYw0WjTkH61Rxe
3Bb0VnQWy4DTqbX+rozYJzb9Ae/6blPF4B85gMHwOXQ2b9se2FE8OpU8R2MpVoe7
eHR8FNKSEwXHuIp/JaLbixK0H5peQ7i5VGQboxLvXSGe2xLFUxdxu2JXEM9ypJbb
udARs7lFE9BtOZ9SOcQhy6XVonNll3Lj2OgTxC4NU8pklFLtZ/m8RClF8D82ZJB0
SwUgV1RcU1eiq68wHSdSRcBYOgxdN32OrMXfpFwLzxK1e5DsfRWrKmhdy5KhYYEu
hG9/QOyxEm1wrgl2UB7MZ9+K0VUpFh35OI7BtqKxjMhVTLb5kPx1a30Poyu8Mi8K
lOKSbZzn3g2KQMOtbiwW/jNfNQa9FlaW6da4RSZBRxuSsooyji9L/EwIfyWzFdw0
oRR+FVRL0pcu5qFfXf1y7y2fzXRBMTU0pVzJ2NdHHk4C+yiQIF+0xNYFYED7I2Px
8iaIXzz8GHvJYYN5pDGE3BOkmfNgbchKsLHeGMQEz4qClKeEayYFEcU=
-----END CERTIFICATE-----
