Certificate:
    Data:
        Version: 3 (0x2)
        Serial Number: 211549759094 (0x3141592676)
    Signature Algorithm: sha256WithRSAEncryption
        Issuer: CN=SRK4_sha256_4096_65537_v3_ca
        Validity
            Not Before: Jul 13 21:21:26 2015 GMT
            Not After : Jul  9 21:21:26 2030 GMT
        Subject: CN=IMG4_1_sha256_4096_65537_v3_usr
        Subject Public Key Info:
            Public Key Algorithm: rsaEncryption
                Public-Key: (4096 bit)
                Modulus:
                    00:ce:e7:33:58:e3:b0:3c:46:25:09:e9:89:5a:30:
                    da:5a:69:d6:47:c7:63:b3:85:c1:c4:d3:18:5b:72:
                    69:2e:7f:43:37:22:dc:8c:f4:55:1e:8d:f4:12:f8:
                    19:88:d5:62:37:e4:3d:cd:e2:38:3b:17:9a:06:21:
                    f6:8b:1e:62:88:e2:e1:6e:c3:e8:29:a0:04:98:a1:
                    6b:71:ca:41:4b:44:8b:c8:9b:69:f0:95:78:d4:89:
                    0b:97:db:0a:53:0f:b9:00:f0:71:b5:82:24:00:68:
                    35:58:a0:2d:70:df:80:b9:a8:6a:ef:c5:b3:5a:a9:
                    53:b4:2e:34:80:8c:d4:5d:3b:bd:56:fc:42:bb:e7:
                    9c:85:dd:78:b5:46:49:22:2d:4f:80:f1:a2:21:5a:
                    18:ff:e3:0d:b9:37:aa:11:c7:93:51:cd:e6:36:80:
                    4b:c3:17:b6:33:08:84:d4:1e:be:9e:e0:31:46:e5:
                    2b:63:c8:46:55:f2:85:51:48:d9:6d:d6:e5:d7:13:
                    bf:8c:b1:03:bf:9f:37:ab:2e:78:24:64:27:4a:19:
                    64:86:d1:7f:d7:67:fa:53:44:92:ae:94:62:82:4e:
                    c3:c2:86:93:9e:83:d4:28:1c:56:34:eb:5b:95:f4:
                    96:ee:62:77:b1:c0:9e:55:7f:d3:02:4d:b2:2c:0d:
                    40:1e:42:ea:1a:e5:d3:9c:28:a0:70:d6:05:0b:9e:
                    c3:5d:41:5b:6e:0a:0b:d6:c1:cd:8c:83:d3:74:88:
                    70:80:2f:8e:0a:1b:43:c1:d2:c3:78:bf:24:c1:7e:
                    df:b8:8b:8e:05:b2:53:27:9c:dd:da:94:4c:7c:6c:
                    8c:9c:e0:13:02:8f:52:a4:7b:e7:5b:5f:d2:a2:1f:
                    9c:98:5e:e7:6a:48:29:0b:a2:d4:68:df:3b:c3:57:
                    f0:26:45:9f:dc:90:df:20:e4:5f:ec:ff:4e:4e:8a:
                    9b:ed:8f:bc:ab:c1:70:ab:3c:2c:b9:f5:21:3d:8d:
                    bd:20:0d:e9:b2:87:25:0f:77:25:a3:39:e7:cd:d9:
                    eb:4b:2d:0f:c7:9e:b3:1f:13:3c:b1:24:20:de:22:
                    95:e3:36:a4:d0:cf:bb:f3:6e:15:66:94:a8:cd:10:
                    6d:8b:ef:7b:58:2a:d1:ca:63:1a:3f:c2:41:82:bd:
                    09:fa:e6:12:1f:bc:fc:45:7d:75:94:c8:89:62:53:
                    33:7c:5d:8e:2e:1a:49:a2:94:37:e2:8f:9a:5a:80:
                    54:ee:2e:81:7b:7f:75:f2:4f:c3:25:cb:72:7b:35:
                    c1:b6:09:8f:83:f2:25:cf:ae:16:97:44:03:c5:17:
                    c2:a4:eb:bf:c4:24:a9:f1:ec:a4:36:69:28:be:f4:
                    96:ff:53
                Exponent: 65537 (0x10001)
        X509v3 extensions:
            X509v3 Basic Constraints: 
                CA:FALSE
            Netscape Comment: 
                OpenSSL Generated Certificate
            X509v3 Subject Key Identifier: 
                D0:61:2B:51:27:9A:6E:B5:92:B3:A8:24:B2:59:10:61:70:76:41:96
            X509v3 Authority Key Identifier: 
                keyid:86:9F:2C:13:44:60:E0:B2:D8:C7:F6:E4:CB:D1:82:EC:BE:49:5F:98

    Signature Algorithm: sha256WithRSAEncryption
         93:46:4c:ed:14:49:ed:ec:5e:5e:78:32:bc:d7:8b:62:8f:2e:
         7f:f3:b9:1f:18:f0:20:ec:3e:92:e0:f2:20:70:57:2b:ac:3d:
         26:c1:47:69:3b:63:2a:e6:1f:a1:5b:5a:d0:4d:47:54:94:c7:
         0d:1b:42:c0:a4:4b:96:4e:08:d3:2e:bd:77:02:0a:66:91:1b:
         d0:bb:9e:72:dd:20:a5:86:06:63:ac:ca:53:fe:74:9a:b9:a5:
         ed:49:67:9c:71:50:20:97:25:38:0b:81:cb:9a:55:2d:3a:85:
         8d:c2:43:55:a9:b7:7d:ee:83:a8:5d:5c:4b:46:00:a9:17:03:
         4e:bc:ca:ce:6b:90:a1:79:7c:f6:6f:4b:2c:65:0e:eb:b2:01:
         96:53:25:b6:ff:62:1d:fc:f1:29:74:3b:99:21:8c:72:6c:63:
         ae:41:ff:29:0c:53:a0:6b:38:a9:ad:37:8b:b7:33:8a:86:7b:
         80:1e:f1:9e:6a:c3:fb:5f:e7:ab:08:5e:f5:e9:fd:d0:ca:90:
         e7:52:6e:6b:6a:6d:a8:3c:5a:bb:59:c4:97:87:aa:31:c9:f2:
         ab:37:7b:87:e4:2a:7b:26:37:09:10:69:d9:53:d8:b5:f0:7b:
         8a:20:bb:ae:7a:d6:7a:38:34:27:9f:6d:f2:d0:a5:ca:8f:79:
         1b:52:7e:93:5c:cf:fd:07:c2:b7:f9:4d:a7:bf:61:38:6e:08:
         fd:83:0d:8b:b6:c6:7c:48:13:e8:3e:14:fc:8b:e6:41:12:c4:
         db:fc:0f:91:a0:6f:70:52:59:e5:07:7e:ba:0d:cd:00:f5:e3:
         22:ea:aa:d0:fd:54:5f:f4:61:b5:b9:f9:b9:42:57:a2:36:2c:
         55:b4:26:ec:a6:f8:82:17:a3:22:80:37:7f:98:10:f6:91:ac:
         92:46:74:6a:6b:86:eb:ae:36:83:da:36:d6:f1:72:1b:1f:77:
         96:20:9c:28:27:96:c4:ee:0b:da:47:d5:f5:b6:1e:af:03:6f:
         e6:7d:25:79:39:5f:59:07:75:b1:8f:29:de:b3:6f:25:33:9a:
         e3:aa:7c:f7:d5:c7:71:e0:ac:8b:88:24:ed:96:2e:0f:2a:43:
         aa:55:5f:0e:41:cd:6e:33:a6:6f:7d:0f:fe:63:af:f7:52:22:
         99:f9:c3:d3:ee:0e:13:db:41:81:3a:e4:cc:01:b6:3d:da:47:
         46:e7:a0:25:20:5b:98:07:01:92:68:b5:7c:82:6b:1a:20:ef:
         69:fb:71:11:40:01:48:1e:b9:be:05:b2:2b:36:11:1f:13:a8:
         a9:17:30:a6:04:41:1e:b3:51:56:2b:ec:75:20:f0:7b:7f:9a:
         29:f6:09:00:30:5f:09:0d
-----BEGIN CERTIFICATE-----
MIIFSzCCAzOgAwIBAgIFMUFZJnYwDQYJKoZIhvcNAQELBQAwJzElMCMGA1UEAwwc
U1JLNF9zaGEyNTZfNDA5Nl82NTUzN192M19jYTAeFw0xNTA3MTMyMTIxMjZaFw0z
MDA3MDkyMTIxMjZaMCoxKDAmBgNVBAMMH0lNRzRfMV9zaGEyNTZfNDA5Nl82NTUz
N192M191c3IwggIiMA0GCSqGSIb3DQEBAQUAA4ICDwAwggIKAoICAQDO5zNY47A8
RiUJ6YlaMNpaadZHx2OzhcHE0xhbcmkuf0M3ItyM9FUejfQS+BmI1WI35D3N4jg7
F5oGIfaLHmKI4uFuw+gpoASYoWtxykFLRIvIm2nwlXjUiQuX2wpTD7kA8HG1giQA
aDVYoC1w34C5qGrvxbNaqVO0LjSAjNRdO71W/EK755yF3Xi1RkkiLU+A8aIhWhj/
4w25N6oRx5NRzeY2gEvDF7YzCITUHr6e4DFG5StjyEZV8oVRSNlt1uXXE7+MsQO/
nzerLngkZCdKGWSG0X/XZ/pTRJKulGKCTsPChpOeg9QoHFY061uV9JbuYnexwJ5V
f9MCTbIsDUAeQuoa5dOcKKBw1gULnsNdQVtuCgvWwc2Mg9N0iHCAL44KG0PB0sN4
vyTBft+4i44FslMnnN3alEx8bIyc4BMCj1Kke+dbX9KiH5yYXudqSCkLotRo3zvD
V/AmRZ/ckN8g5F/s/05Oipvtj7yrwXCrPCy59SE9jb0gDemyhyUPdyWjOefN2etL
LQ/HnrMfEzyxJCDeIpXjNqTQz7vzbhVmlKjNEG2L73tYKtHKYxo/wkGCvQn65hIf
vPxFfXWUyIliUzN8XY4uGkmilDfij5pagFTuLoF7f3XyT8Mly3J7NcG2CY+D8iXP
rhaXRAPFF8Kk67/EJKnx7KQ2aSi+9Jb/UwIDAQABo3sweTAJBgNVHRMEAjAAMCwG
CWCGSAGG+EIBDQQfFh1PcGVuU1NMIEdlbmVyYXRlZCBDZXJ0aWZpY2F0ZTAdBgNV
HQ4EFgQU0GErUSeabrWSs6gkslkQYXB2QZYwHwYDVR0jBBgwFoAUhp8sE0Rg4LLY
x/bky9GC7L5JX5gwDQYJKoZIhvcNAQELBQADggIBAJNGTO0USe3sXl54MrzXi2KP
Ln/zuR8Y8CDsPpLg8iBwVyusPSbBR2k7YyrmH6FbWtBNR1SUxw0bQsCkS5ZOCNMu
vXcCCmaRG9C7nnLdIKWGBmOsylP+dJq5pe1JZ5xxUCCXJTgLgcuaVS06hY3CQ1Wp
t33ug6hdXEtGAKkXA068ys5rkKF5fPZvSyxlDuuyAZZTJbb/Yh388Sl0O5khjHJs
Y65B/ykMU6BrOKmtN4u3M4qGe4Ae8Z5qw/tf56sIXvXp/dDKkOdSbmtqbag8WrtZ
xJeHqjHJ8qs3e4fkKnsmNwkQadlT2LXwe4ogu6561no4NCefbfLQpcqPeRtSfpNc
z/0Hwrf5Tae/YThuCP2DDYu2xnxIE+g+FPyL5kESxNv8D5Ggb3BSWeUHfroNzQD1
4yLqqtD9VF/0YbW5+blCV6I2LFW0Juym+IIXoyKAN3+YEPaRrJJGdGprhuuuNoPa
Ntbxchsfd5YgnCgnlsTuC9pH1fW2Hq8Db+Z9JXk5X1kHdbGPKd6zbyUzmuOqfPfV
x3HgrIuIJO2WLg8qQ6pVXw5BzW4zpm99D/5jr/dSIpn5w9PuDhPbQYE65MwBtj3a
R0bnoCUgW5gHAZJotXyCaxog72n7cRFAAUgeub4Fsis2ER8TqKkXMKYEQR6zUVYr
7HUg8Ht/min2CQAwXwkN
-----END CERTIFICATE-----
