Certificate:
    Data:
        Version: 3 (0x2)
        Serial Number: 211549759090 (0x3141592672)
    Signature Algorithm: sha256WithRSAEncryption
        Issuer: CN=SRK3_sha256_4096_65537_v3_ca
        Validity
            Not Before: Jul 13 21:20:32 2015 GMT
            Not After : Jul  9 21:20:32 2030 GMT
        Subject: CN=CSF3_1_sha256_4096_65537_v3_usr
        Subject Public Key Info:
            Public Key Algorithm: rsaEncryption
                Public-Key: (4096 bit)
                Modulus:
                    00:a6:77:82:37:25:97:cb:67:c3:bc:a2:34:39:8d:
                    6c:e9:86:ce:fc:72:f3:53:4e:90:dd:67:ab:a9:b3:
                    77:c9:c5:0c:63:29:2b:22:f8:26:51:1c:2f:60:07:
                    bf:e6:14:97:c4:54:dc:a2:a3:1f:51:67:df:13:21:
                    c6:47:5d:49:f3:1f:c7:70:e5:82:fe:55:89:13:7b:
                    53:07:2f:60:ba:93:d3:e3:08:ff:27:2e:44:97:8d:
                    82:22:d3:a1:42:c7:b9:5b:e5:08:3a:ef:3a:d4:b9:
                    2c:82:d3:91:5c:fa:15:5f:a3:b7:54:1f:1b:3c:5e:
                    55:55:1f:6f:75:f9:94:af:4f:de:8c:93:4a:79:bc:
                    f0:70:17:56:81:e7:f5:d7:73:68:94:64:9e:18:ac:
                    1f:67:d7:42:13:b0:e3:42:da:41:1f:d1:df:b6:b1:
                    b0:b0:fa:71:d5:8c:bd:23:34:be:5b:0e:34:a8:8c:
                    57:71:0c:a3:95:88:80:31:2f:e2:b5:be:25:3e:e3:
                    67:7f:cf:90:db:ff:33:c0:b4:db:90:a9:61:fc:63:
                    f9:74:7c:09:55:78:46:48:3e:be:72:1e:03:e9:6a:
                    02:6d:67:43:a7:af:f3:76:87:88:05:b5:1d:87:a2:
                    cb:4d:23:81:04:87:01:5d:1a:23:92:86:6d:f7:55:
                    a7:f0:43:5e:1e:e1:57:e2:61:6e:b4:84:29:d8:57:
                    21:7f:35:97:3b:af:5c:c2:32:e6:81:a2:5a:db:ad:
                    1a:3b:f0:76:ac:9f:90:90:a3:88:fe:0d:d0:24:87:
                    c0:ce:07:ee:1e:c1:77:e5:89:43:b4:df:7d:9f:c5:
                    c6:a5:00:23:14:6f:64:c7:4e:78:a9:81:33:77:95:
                    1f:80:41:33:37:e2:32:7b:0e:9b:02:f8:6b:b8:f0:
                    a0:4a:05:16:41:0a:44:8b:d3:be:0f:59:e2:f8:b9:
                    f9:4b:db:4d:44:f4:75:2a:0b:78:aa:e4:3c:b9:3f:
                    0a:32:0b:1c:80:f7:00:b8:7f:56:85:88:bc:ec:5d:
                    2e:1c:73:61:d7:05:b5:3a:8b:f2:eb:f4:d4:a1:f2:
                    41:1d:cc:36:50:42:32:53:e3:a6:3c:31:88:0f:6f:
                    9c:05:98:e4:1b:81:5b:36:a7:5d:02:37:0b:ea:53:
                    31:34:80:71:f6:1b:34:78:62:64:88:ec:b0:19:1b:
                    a8:52:2c:d1:03:19:14:18:a9:3a:f7:3f:f3:da:1a:
                    a5:74:39:cf:d1:02:36:74:79:fc:40:2a:d1:b1:f8:
                    9e:c1:a4:ca:39:ad:de:7e:48:51:6c:2e:e3:32:ad:
                    ca:27:73:d8:b9:d8:90:03:93:91:0f:ff:0e:0f:ac:
                    2d:d6:85
                Exponent: 65537 (0x10001)
        X509v3 extensions:
            X509v3 Basic Constraints: 
                CA:FALSE
            Netscape Comment: 
                OpenSSL Generated Certificate
            X509v3 Subject Key Identifier: 
                FB:86:E8:27:60:09:EB:6D:C3:E3:9D:54:6C:51:75:91:3C:E3:76:68
            X509v3 Authority Key Identifier: 
                keyid:AB:DC:18:84:CE:8C:12:82:05:78:62:5E:8A:11:4E:BE:F3:B1:36:F5

    Signature Algorithm: sha256WithRSAEncryption
         6e:46:32:f8:54:1d:c5:95:bb:0e:f0:33:01:23:ab:01:a1:be:
         ea:11:1d:93:2c:61:72:46:1c:a5:3c:6f:3c:f8:31:ac:2e:7f:
         e7:4e:6d:44:24:b3:a8:aa:ce:d1:eb:1f:08:06:fe:a4:fd:10:
         4b:1d:2b:d2:64:05:ed:fc:87:c1:4c:5a:67:1d:84:ab:a6:9d:
         2a:c8:49:74:d3:65:3b:1a:59:af:aa:65:69:29:c2:7e:da:6f:
         bc:98:29:21:d5:3b:68:2b:8a:63:7b:31:75:c7:88:65:3a:fc:
         b3:3f:55:7f:41:dd:90:24:59:49:44:ca:51:14:48:0d:2d:65:
         f7:9f:40:75:cf:cd:e5:1e:3c:4a:d6:64:3c:c7:0e:2d:17:0f:
         d3:d4:c8:36:af:cb:6f:af:8e:92:4c:17:15:31:9b:69:9a:9a:
         23:28:05:91:c4:fe:ca:81:a3:45:dc:02:de:47:09:ab:0e:dc:
         d0:d8:2a:36:36:67:56:ca:64:be:15:df:85:fc:82:cb:90:28:
         63:21:12:c0:1e:93:84:ab:54:c5:b9:fe:14:56:f2:92:72:ab:
         f4:29:61:88:82:26:9a:c0:1a:1d:82:3b:ba:1f:48:de:37:3f:
         e7:65:fa:6f:79:f0:32:27:77:5e:ca:96:b3:b6:a4:cf:73:e2:
         df:4a:ad:0b:68:2f:85:fe:5b:bf:4d:1a:a7:db:a1:86:81:f8:
         d6:53:72:04:9c:f4:f1:c4:c9:f3:3e:c2:b7:ac:d4:45:a6:ce:
         0a:3b:eb:7e:f6:fa:84:ea:1b:d0:d2:20:95:d2:4e:fd:46:0d:
         07:b0:dd:c2:34:f6:5a:f4:da:76:a8:09:b4:06:f2:77:2f:f8:
         c5:c9:49:63:77:0d:16:96:05:bb:34:3d:59:f3:2b:0f:6b:6c:
         b9:33:76:98:c9:51:04:22:06:1b:6b:14:c4:33:6b:0f:b1:f6:
         f7:a2:4f:a9:1e:f6:f7:c0:1b:5d:29:44:3a:39:ab:65:74:39:
         20:7f:11:f8:79:0c:59:9c:60:45:b9:0f:48:a1:fc:24:ae:fb:
         5d:59:06:14:9d:82:23:b7:3a:2c:ec:c3:38:86:e0:22:2a:d4:
         c5:7d:57:76:c7:ff:93:3a:eb:66:4e:3f:13:9d:24:b1:f0:f6:
         8b:f9:0d:9d:4e:11:c4:d9:e9:b7:4b:38:b9:0b:13:30:39:21:
         dd:dd:ce:04:5a:c3:7d:f2:b7:52:d6:60:67:47:bb:f4:68:b4:
         f7:61:ba:4c:0d:01:ec:33:8b:93:29:5d:c3:c5:87:70:a4:84:
         e8:e5:cf:ed:34:22:60:b0:95:37:75:c5:cf:70:77:62:65:a1:
         00:f9:36:e4:0d:b5:a4:85
-----BEGIN CERTIFICATE-----
MIIFSzCCAzOgAwIBAgIFMUFZJnIwDQYJKoZIhvcNAQELBQAwJzElMCMGA1UEAwwc
U1JLM19zaGEyNTZfNDA5Nl82NTUzN192M19jYTAeFw0xNTA3MTMyMTIwMzJaFw0z
MDA3MDkyMTIwMzJaMCoxKDAmBgNVBAMMH0NTRjNfMV9zaGEyNTZfNDA5Nl82NTUz
N192M191c3IwggIiMA0GCSqGSIb3DQEBAQUAA4ICDwAwggIKAoICAQCmd4I3JZfL
Z8O8ojQ5jWzphs78cvNTTpDdZ6ups3fJxQxjKSsi+CZRHC9gB7/mFJfEVNyiox9R
Z98TIcZHXUnzH8dw5YL+VYkTe1MHL2C6k9PjCP8nLkSXjYIi06FCx7lb5Qg67zrU
uSyC05Fc+hVfo7dUHxs8XlVVH291+ZSvT96Mk0p5vPBwF1aB5/XXc2iUZJ4YrB9n
10ITsONC2kEf0d+2sbCw+nHVjL0jNL5bDjSojFdxDKOViIAxL+K1viU+42d/z5Db
/zPAtNuQqWH8Y/l0fAlVeEZIPr5yHgPpagJtZ0Onr/N2h4gFtR2HostNI4EEhwFd
GiOShm33VafwQ14e4VfiYW60hCnYVyF/NZc7r1zCMuaBolrbrRo78Hasn5CQo4j+
DdAkh8DOB+4ewXfliUO0332fxcalACMUb2THTnipgTN3lR+AQTM34jJ7DpsC+Gu4
8KBKBRZBCkSL074PWeL4uflL201E9HUqC3iq5Dy5PwoyCxyA9wC4f1aFiLzsXS4c
c2HXBbU6i/Lr9NSh8kEdzDZQQjJT46Y8MYgPb5wFmOQbgVs2p10CNwvqUzE0gHH2
GzR4YmSI7LAZG6hSLNEDGRQYqTr3P/PaGqV0Oc/RAjZ0efxAKtGx+J7BpMo5rd5+
SFFsLuMyrconc9i52JADk5EP/w4PrC3WhQIDAQABo3sweTAJBgNVHRMEAjAAMCwG
CWCGSAGG+EIBDQQfFh1PcGVuU1NMIEdlbmVyYXRlZCBDZXJ0aWZpY2F0ZTAdBgNV
HQ4EFgQU+4boJ2AJ623D451UbFF1kTzjdmgwHwYDVR0jBBgwFoAUq9wYhM6MEoIF
eGJeihFOvvOxNvUwDQYJKoZIhvcNAQELBQADggIBAG5GMvhUHcWVuw7wMwEjqwGh
vuoRHZMsYXJGHKU8bzz4Mawuf+dObUQks6iqztHrHwgG/qT9EEsdK9JkBe38h8FM
WmcdhKumnSrISXTTZTsaWa+qZWkpwn7ab7yYKSHVO2grimN7MXXHiGU6/LM/VX9B
3ZAkWUlEylEUSA0tZfefQHXPzeUePErWZDzHDi0XD9PUyDavy2+vjpJMFxUxm2ma
miMoBZHE/sqBo0XcAt5HCasO3NDYKjY2Z1bKZL4V34X8gsuQKGMhEsAek4SrVMW5
/hRW8pJyq/QpYYiCJprAGh2CO7ofSN43P+dl+m958DInd17KlrO2pM9z4t9KrQto
L4X+W79NGqfboYaB+NZTcgSc9PHEyfM+wres1EWmzgo76372+oTqG9DSIJXSTv1G
DQew3cI09lr02naoCbQG8ncv+MXJSWN3DRaWBbs0PVnzKw9rbLkzdpjJUQQiBhtr
FMQzaw+x9veiT6ke9vfAG10pRDo5q2V0OSB/Efh5DFmcYEW5D0ih/CSu+11ZBhSd
giO3OizswziG4CIq1MV9V3bH/5M662ZOPxOdJLHw9ov5DZ1OEcTZ6bdLOLkLEzA5
Id3dzgRaw33yt1LWYGdHu/RotPdhukwNAewzi5MpXcPFh3CkhOjlz+00ImCwlTd1
xc9wd2JloQD5NuQNtaSF
-----END CERTIFICATE-----
